TN:
SF:/home/tobias/taller2/appServer/DrTinder/source/Servidor/ChatDatabaseManager.cpp
FN:6,_ZN19ChatDatabaseManagerC2EPN7rocksdb2DBE
FN:10,_ZN19ChatDatabaseManager18getConversationKeyESsSs
FN:20,_ZN19ChatDatabaseManager11saveNewMsgsERSsS0_S0_
FN:20,_ZN19ChatDatabaseManager17getNewMessagesKeyESsSs
FN:24,_ZN19ChatDatabaseManager11saveNewMsgsESsSsSs
FN:34,_ZN19ChatDatabaseManager11saveMessageERSsS0_S0_
FN:36,_ZN19ChatDatabaseManager11saveMessageESsSsSs
FN:53,_ZN19ChatDatabaseManager10getHistoryERSsS0_S0_
FN:57,_ZN19ChatDatabaseManager10getHistoryESsSsRSs
FN:67,_ZN19ChatDatabaseManager10getNewMsgsESsSsRSs
FN:80,_Z41__static_initialization_and_destruction_0ii
FN:80,_GLOBAL__sub_I__ZN19ChatDatabaseManagerC2EPN7rocksdb2DBE
FNDA:181,_ZN19ChatDatabaseManagerC2EPN7rocksdb2DBE
FNDA:2,_ZN19ChatDatabaseManager11saveMessageESsSsSs
FNDA:4,_ZN19ChatDatabaseManager11saveNewMsgsESsSsSs
FNDA:5,_Z41__static_initialization_and_destruction_0ii
FNDA:4,_ZN19ChatDatabaseManager10getNewMsgsESsSsRSs
FNDA:5,_GLOBAL__sub_I__ZN19ChatDatabaseManagerC2EPN7rocksdb2DBE
FNDA:6,_ZN19ChatDatabaseManager17getNewMessagesKeyESsSs
FNDA:1,_ZN19ChatDatabaseManager10getHistoryESsSsRSs
FNDA:4,_ZN19ChatDatabaseManager11saveNewMsgsERSsS0_S0_
FNDA:4,_ZN19ChatDatabaseManager11saveMessageERSsS0_S0_
FNDA:15,_ZN19ChatDatabaseManager18getConversationKeyESsSs
FNDA:2,_ZN19ChatDatabaseManager10getHistoryERSsS0_S0_
FNF:12
FNH:12
DA:6,181
DA:8,181
DA:10,15
DA:11,15
DA:12,15
DA:13,3
DA:15,12
DA:17,15
DA:20,10
DA:21,10
DA:22,6
DA:23,6
DA:24,4
DA:25,10
DA:27,9
DA:28,6
DA:29,9
DA:30,7
DA:31,4
DA:32,2
DA:34,4
DA:35,4
DA:36,6
DA:37,8
DA:38,6
DA:39,3
DA:40,6
DA:42,9
DA:44,4
DA:45,4
DA:46,8
DA:48,2
DA:49,5
DA:50,3
DA:53,4
DA:54,2
DA:55,4
DA:57,3
DA:58,1
DA:59,4
DA:60,0
DA:61,1
DA:63,3
DA:64,4
DA:67,3
DA:68,4
DA:69,4
DA:70,4
DA:71,2
DA:72,4
DA:73,4
DA:74,2
DA:75,2
DA:76,1
DA:77,1
DA:78,1
DA:79,4
DA:80,9
DA:83,4
DA:84,11
LF:60
LH:59
end_of_record
TN:
SF:/home/tobias/taller2/appServer/DrTinder/source/Servidor/ChatDatabaseManager.h
FN:8,_ZN19ChatDatabaseManagerD2Ev
FNDA:4,_ZN19ChatDatabaseManagerD2Ev
FNF:1
FNH:1
DA:8,4
LF:1
LH:1
end_of_record
TN:
SF:/home/tobias/taller2/appServer/DrTinder/source/Servidor/DatabaseManager.cpp
FN:9,_ZN15DatabaseManagerC2EPN7rocksdb2DBE
FN:14,_ZN15DatabaseManagerD2Ev
FN:23,_ZN15DatabaseManager12correctEntryESsSs
FN:38,_ZN15DatabaseManager8addEntryESsSs
FN:43,_ZN15DatabaseManager11deleteEntryESs
FN:47,_ZN15DatabaseManager8getEntryESsRSs
FN:58,_ZN15DatabaseManager12replaceEntryESsSs
FN:66,_ZN15DatabaseManager14createIteratorEv
FN:72,_ZN15DatabaseManager15advanceIteratorEv
FN:79,_ZN15DatabaseManager13getActualPairERSsS0_
FN:88,_ZN15DatabaseManager14deleteIteratorEv
FN:98,_ZN15DatabaseManager13validIteratorEv
FN:102,_GLOBAL__sub_I__ZN15DatabaseManagerC2EPN7rocksdb2DBE
FN:102,_Z41__static_initialization_and_destruction_0ii
FNDA:53,_ZN15DatabaseManager13getActualPairERSsS0_
FNDA:74,_ZN15DatabaseManager12replaceEntryESsSs
FNDA:121,_ZN15DatabaseManagerD2Ev
FNDA:22,_Z41__static_initialization_and_destruction_0ii
FNDA:1286,_ZN15DatabaseManager8addEntryESsSs
FNDA:6,_ZN15DatabaseManager13validIteratorEv
FNDA:676,_ZN15DatabaseManagerC2EPN7rocksdb2DBE
FNDA:12,_ZN15DatabaseManager14createIteratorEv
FNDA:47,_ZN15DatabaseManager15advanceIteratorEv
FNDA:24,_ZN15DatabaseManager12correctEntryESsSs
FNDA:22,_GLOBAL__sub_I__ZN15DatabaseManagerC2EPN7rocksdb2DBE
FNDA:12,_ZN15DatabaseManager14deleteIteratorEv
FNDA:155,_ZN15DatabaseManager11deleteEntryESs
FNDA:2258,_ZN15DatabaseManager8getEntryESsRSs
FNF:14
FNH:14
DA:9,676
DA:10,676
DA:11,676
DA:12,676
DA:14,121
DA:15,121
DA:21,121
DA:23,24
DA:24,24
DA:25,24
DA:26,48
DA:27,24
DA:28,6
DA:29,6
DA:30,18
DA:31,0
DA:32,0
DA:34,18
DA:35,42
DA:38,1286
DA:39,1286
DA:40,1286
DA:43,155
DA:44,155
DA:47,2258
DA:48,2258
DA:49,4516
DA:50,2258
DA:51,544
DA:53,1714
DA:54,3972
DA:58,74
DA:59,74
DA:60,74
DA:61,63
DA:63,74
DA:64,74
DA:66,12
DA:67,12
DA:68,12
DA:69,12
DA:70,12
DA:72,47
DA:73,47
DA:74,0
DA:76,47
DA:77,47
DA:79,53
DA:80,53
DA:81,0
DA:83,53
DA:84,53
DA:85,53
DA:88,12
DA:89,12
DA:90,12
DA:92,12
DA:93,12
DA:94,12
DA:95,12
DA:98,6
DA:99,6
DA:100,0
DA:101,6
DA:102,66
LF:65
LH:60
end_of_record
TN:
SF:/home/tobias/taller2/appServer/DrTinder/source/Servidor/Interests.cpp
FN:12,_ZN9InterestsC2Ev
FN:17,_ZN9Interests3addESsSs
FN:34,_ZN9Interests6getAllESsRSt6vectorISsSaISsEE
FN:46,_ZN9Interests3hasESsSs
FN:60,_ZN9Interests6removeESsSs
FN:73,_ZN9Interests12allInterestsEv
FN:77,_ZN9InterestsD2Ev
FN:77,_ZN9InterestsD0Ev
FNDA:10,_ZN9Interests6removeESsSs
FNDA:65,_ZN9Interests3hasESsSs
FNDA:509,_ZN9Interests12allInterestsEv
FNDA:0,_ZN9InterestsD0Ev
FNDA:2646,_ZN9InterestsC2Ev
FNDA:3345,_ZN9Interests3addESsSs
FNDA:3873,_ZN9InterestsD2Ev
FNDA:5,_ZN9Interests6getAllESsRSt6vectorISsSaISsEE
FNF:8
FNH:7
DA:12,2646
DA:15,2646
DA:17,3345
DA:18,3345
DA:20,3345
DA:21,548
DA:23,548
DA:24,415
DA:28,2797
DA:29,2797
DA:30,2797
DA:32,3345
DA:34,5
DA:35,5
DA:37,5
DA:39,5
DA:40,5
DA:42,0
DA:46,65
DA:47,65
DA:49,65
DA:51,55
DA:52,55
DA:53,45
DA:57,20
DA:60,10
DA:61,10
DA:63,10
DA:64,10
DA:65,10
DA:66,10
DA:67,10
DA:71,10
DA:73,509
DA:74,509
DA:77,3873
DA:79,3873
LF:37
LH:36
end_of_record
TN:
SF:/home/tobias/taller2/appServer/DrTinder/source/Servidor/Interests.h
FN:17,_ZN9InterestsaSERKS_
FN:17,_ZN9InterestsC2ERKS_
FNDA:1227,_ZN9InterestsaSERKS_
FNDA:992,_ZN9InterestsC2ERKS_
FNF:2
FNH:2
DA:17,2219
LF:1
LH:1
end_of_record
TN:
SF:/home/tobias/taller2/appServer/DrTinder/source/Servidor/LikesDatabaseManager.cpp
FN:11,_ZN20LikesDatabaseManagerC2EPN7rocksdb2DBE
FN:15,_ZN20LikesDatabaseManager7matchesESsSs
FN:30,_ZN20LikesDatabaseManager8saveLikeESsSsSs
FN:57,_ZN20LikesDatabaseManager10getMatchesESsRSs
FN:62,_ZN20LikesDatabaseManager13getNewMatchesESsRSs
FN:68,_ZN20LikesDatabaseManager18getInteractedUsersESsRSs
FN:70,_GLOBAL__sub_I__ZN20LikesDatabaseManagerC2EPN7rocksdb2DBE
FN:70,_Z41__static_initialization_and_destruction_0ii
FNDA:204,_ZN20LikesDatabaseManagerC2EPN7rocksdb2DBE
FNDA:84,_ZN20LikesDatabaseManager7matchesESsSs
FNDA:9,_ZN20LikesDatabaseManager18getInteractedUsersESsRSs
FNDA:10,_GLOBAL__sub_I__ZN20LikesDatabaseManagerC2EPN7rocksdb2DBE
FNDA:11,_ZN20LikesDatabaseManager10getMatchesESsRSs
FNDA:7,_ZN20LikesDatabaseManager13getNewMatchesESsRSs
FNDA:10,_Z41__static_initialization_and_destruction_0ii
FNDA:69,_ZN20LikesDatabaseManager8saveLikeESsSsSs
FNF:8
FNH:8
DA:11,204
DA:13,204
DA:15,84
DA:16,168
DA:17,84
DA:18,84
DA:19,84
DA:20,84
DA:22,84
DA:23,84
DA:24,84
DA:25,84
DA:27,168
DA:30,69
DA:31,138
DA:32,69
DA:34,69
DA:35,25
DA:37,44
DA:40,69
DA:42,27
DA:43,27
DA:45,27
DA:46,27
DA:48,27
DA:49,27
DA:51,27
DA:52,27
DA:54,69
DA:55,69
DA:57,11
DA:58,11
DA:59,11
DA:60,11
DA:62,7
DA:64,7
DA:65,7
DA:66,7
DA:68,9
DA:69,9
DA:70,39
LF:41
LH:41
end_of_record
TN:
SF:/home/tobias/taller2/appServer/DrTinder/source/Servidor/LikesDatabaseManager.h
FN:10,_ZN20LikesDatabaseManagerD2Ev
FNDA:12,_ZN20LikesDatabaseManagerD2Ev
FNF:1
FNH:1
DA:10,12
LF:1
LH:1
end_of_record
TN:
SF:/home/tobias/taller2/appServer/DrTinder/source/Servidor/MessageHandler.cpp
FN:7,_ZN14MessageHandlerC2EP19_server_databases_t
FN:15,_ZN14MessageHandler7setUserESs
FN:22,_ZN14MessageHandler13setSharedLinkESs
FN:32,_ZN14MessageHandler9isUserSetEv
FN:36,_ZN14MessageHandlerD2Ev
FN:43,_ZN14MessageHandler17updateUsersWithSSEv
FN:70,_ZN14MessageHandler5getIdEv
FN:76,_ZN14MessageHandler10setUsersDBEP15DatabaseManager
FN:80,_ZN14MessageHandler8getUsersERSs
FN:117,_ZN14MessageHandler12authenticateESsSs
FN:131,_ZN14MessageHandler15createInterestsEP9Interests
FN:156,_ZN14MessageHandler10createUserESsSs
FN:204,_ZN14MessageHandler10updateUserESs
FN:240,_ZN14MessageHandler10deleteUserEv
FN:258,_ZN14MessageHandler16getInterestPhotoERSsSs
FN:262,_ZN14MessageHandler7getChatESsRSs
FN:266,_ZN14MessageHandler11postChatMsgESsSs
FN:271,_ZN14MessageHandler14getNewMessagesESsRSs
FN:276,_ZN14MessageHandler8getPhotoESsRSs
FN:291,_ZN14MessageHandler9postPhotoESs
FN:301,_ZN14MessageHandler13validateTokenESs
FN:319,_ZN14MessageHandler15getInteractionsERSs
FN:334,_ZN14MessageHandler10getMatchesERSs
FN:338,_ZN14MessageHandler8getTokenEv
FN:363,_ZN14MessageHandler15addLocalizationESs
FN:411,_ZN14MessageHandler7getUserESsRSs
FN:443,_ZN14MessageHandler5splitESsRSsS0_
FN:450,_ZN14MessageHandler16getReactionTokenESs
FN:455,_ZN14MessageHandler15postInteractionESsSs
FN:462,_ZN14MessageHandler13getNewMatchesERSs
FN:465,_Z41__static_initialization_and_destruction_0ii
FN:465,_GLOBAL__sub_I__ZN14MessageHandlerC2EP19_server_databases_t
FNDA:18,_ZN14MessageHandler8getTokenEv
FNDA:24,_ZN14MessageHandler13validateTokenESs
FNDA:2,_ZN14MessageHandler8getUsersERSs
FNDA:7,_ZN14MessageHandler10deleteUserEv
FNDA:4,_ZN14MessageHandler10updateUserESs
FNDA:19,_ZN14MessageHandler12authenticateESsSs
FNDA:34,_ZN14MessageHandler5getIdEv
FNDA:2,_ZN14MessageHandler11postChatMsgESsSs
FNDA:2,_ZN14MessageHandler15getInteractionsERSs
FNDA:5,_GLOBAL__sub_I__ZN14MessageHandlerC2EP19_server_databases_t
FNDA:1,_ZN14MessageHandler7getChatESsRSs
FNDA:3,_ZN14MessageHandler9postPhotoESs
FNDA:2,_ZN14MessageHandler13getNewMatchesERSs
FNDA:8,_ZN14MessageHandler17updateUsersWithSSEv
FNDA:5,_Z41__static_initialization_and_destruction_0ii
FNDA:2,_ZN14MessageHandler15postInteractionESsSs
FNDA:2,_ZN14MessageHandler16getReactionTokenESs
FNDA:8,_ZN14MessageHandler7getUserESsRSs
FNDA:177,_ZN14MessageHandler13setSharedLinkESs
FNDA:12,_ZN14MessageHandler15createInterestsEP9Interests
FNDA:1,_ZN14MessageHandler10getMatchesERSs
FNDA:177,_ZN14MessageHandlerC2EP19_server_databases_t
FNDA:52,_ZN14MessageHandler7setUserESs
FNDA:2,_ZN14MessageHandler14getNewMessagesESsRSs
FNDA:3,_ZN14MessageHandler8getPhotoESsRSs
FNDA:17,_ZN14MessageHandler5splitESsRSsS0_
FNDA:8,_ZN14MessageHandler10createUserESsSs
FNDA:0,_ZN14MessageHandler9isUserSetEv
FNDA:0,_ZN14MessageHandler10setUsersDBEP15DatabaseManager
FNDA:5,_ZN14MessageHandler16getInterestPhotoERSsSs
FNDA:17,_ZN14MessageHandler15addLocalizationESs
FNDA:177,_ZN14MessageHandlerD2Ev
FNF:32
FNH:30
DA:7,177
DA:8,354
DA:9,531
DA:10,177
DA:11,176
DA:12,176
DA:13,177
DA:15,52
DA:17,52
DA:18,52
DA:19,52
DA:20,52
DA:22,177
DA:23,177
DA:24,177
DA:27,0
DA:28,0
DA:30,177
DA:32,0
DA:33,0
DA:36,352
DA:37,177
DA:38,177
DA:40,176
DA:41,177
DA:43,8
DA:44,8
DA:45,8
DA:46,16
DA:47,16
DA:48,16
DA:50,16
DA:51,8
DA:52,672
DA:53,1328
DA:54,664
DA:55,664
DA:56,664
DA:57,88
DA:58,88
DA:60,664
DA:62,680
DA:63,664
DA:64,664
DA:65,664
DA:66,8
DA:68,8
DA:70,34
DA:71,34
DA:72,34
DA:73,34
DA:74,0
DA:76,0
DA:77,0
DA:78,0
DA:80,2
DA:81,2
DA:82,2
DA:83,4
DA:84,4
DA:85,4
DA:87,4
DA:89,4
DA:91,2
DA:92,0
DA:93,0
DA:96,4
DA:97,2
DA:99,4
DA:100,2
DA:102,4
DA:104,4
DA:106,2
DA:108,162
DA:109,158
DA:110,158
DA:111,158
DA:114,4
DA:117,19
DA:118,19
DA:119,19
DA:120,19
DA:121,19
DA:122,2
DA:123,2
DA:124,2
DA:125,2
DA:128,17
DA:131,12
DA:132,12
DA:133,12
DA:134,27
DA:135,15
DA:136,15
DA:137,15
DA:138,34
DA:139,19
DA:140,19
DA:141,38
DA:142,38
DA:143,19
DA:144,19
DA:145,19
DA:146,19
DA:147,19
DA:148,19
DA:149,38
DA:150,38
DA:151,19
DA:152,19
DA:153,27
DA:155,12
DA:156,8
DA:157,8
DA:158,8
DA:160,8
DA:161,1
DA:162,1
DA:165,14
DA:166,14
DA:167,14
DA:168,14
DA:169,14
DA:170,7
DA:171,0
DA:172,0
DA:174,7
DA:175,14
DA:176,14
DA:177,7
DA:178,7
DA:180,14
DA:181,7
DA:182,7
DA:184,7
DA:185,14
DA:186,7
DA:187,14
DA:188,7
DA:190,7
DA:192,7
DA:193,7
DA:194,7
DA:196,7
DA:197,14
DA:199,0
DA:200,0
DA:201,8
DA:204,4
DA:205,4
DA:206,4
DA:207,8
DA:208,8
DA:209,8
DA:210,8
DA:212,4
DA:213,0
DA:214,0
DA:217,4
DA:218,4
DA:221,4
DA:223,4
DA:224,1
DA:225,1
DA:227,3
DA:228,6
DA:229,6
DA:230,3
DA:231,3
DA:232,3
DA:233,3
DA:235,3
DA:237,7
DA:240,7
DA:241,14
DA:242,14
DA:244,7
DA:245,7
DA:246,7
DA:247,7
DA:248,7
DA:249,1
DA:250,7
DA:252,7
DA:253,7
DA:255,7
DA:258,5
DA:259,5
DA:262,1
DA:263,1
DA:265,1
DA:266,0
DA:267,0
DA:268,2
DA:269,2
DA:270,2
DA:271,2
DA:272,0
DA:273,0
DA:274,2
DA:275,2
DA:276,4
DA:277,6
DA:278,2
DA:279,2
DA:280,1
DA:281,4
DA:282,1
DA:283,3
DA:284,0
DA:285,1
DA:287,1
DA:288,4
DA:289,0
DA:291,2
DA:292,4
DA:293,2
DA:294,2
DA:295,1
DA:296,1
DA:297,1
DA:298,1
DA:300,0
DA:301,2
DA:302,2
DA:303,2
DA:304,2
DA:305,24
DA:306,24
DA:307,24
DA:308,22
DA:309,20
DA:310,19
DA:311,19
DA:312,19
DA:313,0
DA:314,1
DA:315,1
DA:317,2
DA:318,2
DA:319,2
DA:320,2
DA:321,2
DA:322,2
DA:323,0
DA:324,4
DA:325,4
DA:326,4
DA:327,0
DA:328,0
DA:329,0
DA:330,2
DA:331,2
DA:332,0
DA:333,0
DA:334,0
DA:335,0
DA:336,0
DA:338,3
DA:339,5
DA:340,3
DA:341,3
DA:343,18
DA:344,32
DA:345,16
DA:346,16
DA:348,2
DA:349,1
DA:352,2
DA:353,16
DA:354,15
DA:355,2
DA:356,2
DA:357,16
DA:358,2
DA:359,4
DA:360,16
DA:361,16
DA:363,18
DA:364,34
DA:365,2
DA:366,4
DA:367,2
DA:368,17
DA:369,15
DA:370,15
DA:371,30
DA:372,15
DA:373,19
DA:374,4
DA:375,4
DA:376,4
DA:378,32
DA:379,30
DA:380,30
DA:381,30
DA:383,17
DA:384,2
DA:385,0
DA:387,2
DA:388,15
DA:389,19
DA:390,2
DA:392,17
DA:393,0
DA:394,30
DA:395,15
DA:397,19
DA:398,2
DA:399,2
DA:400,2
DA:401,2
DA:402,32
DA:403,19
DA:404,17
DA:405,17
DA:406,15
DA:407,17
DA:408,34
DA:409,15
DA:410,15
DA:411,4
DA:412,15
DA:413,34
DA:414,4
DA:415,4
DA:416,4
DA:417,4
DA:418,6
DA:419,4
DA:420,4
DA:421,4
DA:422,6
DA:423,3
DA:426,4
DA:427,3
DA:428,3
DA:429,2
DA:430,2
DA:431,4
DA:432,7
DA:433,5
DA:434,5
DA:435,5
DA:436,10
DA:437,6
DA:438,3
DA:439,3
DA:440,5
DA:441,6
DA:443,2
DA:444,2
DA:445,5
DA:447,2
DA:448,17
DA:449,15
DA:450,15
DA:452,15
DA:453,15
DA:455,2
DA:456,0
DA:457,2
DA:458,0
DA:459,0
DA:460,2
DA:461,2
DA:462,2
DA:463,2
DA:464,2
DA:465,6
DA:467,2
DA:468,2
DA:469,2
DA:470,9
LF:374
LH:336
end_of_record
TN:
SF:/home/tobias/taller2/appServer/DrTinder/source/Servidor/MessageHandler.h
FN:31,_ZN21ExistentUserExceptionC2ERKS_
FN:31,_ZN21ExistentUserExceptionD2Ev
FN:31,_ZN21ExistentUserExceptionD0Ev
FN:31,_ZN21ExistentUserExceptionC2Ev
FN:40,_ZN14_new_message_tD2Ev
FNDA:1,_ZN21ExistentUserExceptionC2ERKS_
FNDA:0,_ZN14_new_message_tD2Ev
FNDA:0,_ZN21ExistentUserExceptionD0Ev
FNDA:2,_ZN21ExistentUserExceptionD2Ev
FNDA:1,_ZN21ExistentUserExceptionC2Ev
FNF:5
FNH:3
DA:31,4
DA:40,0
LF:2
LH:1
end_of_record
TN:
SF:/home/tobias/taller2/appServer/DrTinder/source/Servidor/Parsers/CsvParser.cpp
FN:12,_ZN9CsvParserC2Ev
FN:16,_ZN9CsvParser9parseLineEPSs
FN:44,_ZN9CsvParser13splitInterestESsRSsS0_
FN:60,_ZN9CsvParser13makeInterestsESsR9Interests
FN:84,_ZN9CsvParser8makeUserESsR4User
FN:133,_ZN9CsvParser14makeSignupUserESsR4User
FN:165,_ZN9CsvParser11makePutUserESsSsR4User
FN:208,_ZN9CsvParser13userToCsvFullEP4User
FN:231,_ZN9CsvParser18userToCsvForClientEP4Userb
FN:260,_ZN9CsvParser13interestToCsvEP9Interests
FN:278,_ZN9CsvParser8removeIdERSs
FN:292,_ZN9CsvParserD2Ev
FN:292,_ZN9CsvParserD0Ev
FN:293,_Z41__static_initialization_and_destruction_0ii
FN:293,_GLOBAL__sub_I__ZN9CsvParserC2Ev
FNDA:132,_ZN9CsvParser13splitInterestESsRSsS0_
FNDA:25,_ZN9CsvParser11makePutUserESsSsR4User
FNDA:10,_ZN9CsvParser18userToCsvForClientEP4Userb
FNDA:124,_ZN9CsvParser13userToCsvFullEP4User
FNDA:139,_ZN9CsvParser13interestToCsvEP9Interests
FNDA:467,_ZN9CsvParserC2Ev
FNDA:467,_ZN9CsvParserD2Ev
FNDA:5,_ZN9CsvParser8removeIdERSs
FNDA:22,_Z41__static_initialization_and_destruction_0ii
FNDA:65,_ZN9CsvParser13makeInterestsESsR9Interests
FNDA:0,_ZN9CsvParserD0Ev
FNDA:20,_ZN9CsvParser14makeSignupUserESsR4User
FNDA:176,_ZN9CsvParser9parseLineEPSs
FNDA:22,_GLOBAL__sub_I__ZN9CsvParserC2Ev
FNDA:56,_ZN9CsvParser8makeUserESsR4User
FNF:15
FNH:14
DA:12,467
DA:14,467
DA:16,176
DA:17,176
DA:18,352
DA:20,352
DA:22,176
DA:23,0
DA:26,1688
DA:28,1336
DA:29,1336
DA:30,2677
DA:31,5
DA:32,5
DA:33,5
DA:34,5
DA:36,1336
DA:38,1336
DA:40,176
DA:44,132
DA:45,132
DA:46,264
DA:47,132
DA:48,528
DA:49,264
DA:51,264
DA:52,132
DA:53,132
DA:55,264
DA:57,264
DA:58,132
DA:60,65
DA:61,130
DA:63,65
DA:64,0
DA:67,130
DA:69,130
DA:70,262
DA:71,132
DA:73,132
DA:74,67
DA:77,132
DA:79,132
DA:80,65
DA:82,65
DA:84,56
DA:85,56
DA:86,112
DA:87,56
DA:88,56
DA:90,56
DA:91,10
DA:94,46
DA:95,36
DA:96,36
DA:97,0
DA:99,36
DA:100,36
DA:101,36
DA:103,10
DA:105,92
DA:106,92
DA:107,92
DA:110,46
DA:111,15
DA:114,62
DA:115,62
DA:116,62
DA:117,62
DA:118,31
DA:119,31
DA:121,31
DA:122,31
DA:123,31
DA:124,31
DA:126,31
DA:127,31
DA:129,87
DA:133,20
DA:134,20
DA:136,20
DA:137,0
DA:140,40
DA:141,40
DA:142,40
DA:143,40
DA:144,40
DA:145,40
DA:147,20
DA:148,5
DA:151,15
DA:154,15
DA:157,15
DA:158,15
DA:160,15
DA:161,15
DA:162,35
DA:165,25
DA:166,25
DA:167,50
DA:168,50
DA:170,25
DA:171,16
DA:174,18
DA:175,18
DA:176,18
DA:177,18
DA:178,18
DA:181,18
DA:182,18
DA:185,18
DA:186,9
DA:187,0
DA:189,9
DA:190,0
DA:192,18
DA:193,9
DA:195,9
DA:196,9
DA:197,9
DA:199,9
DA:200,9
DA:201,9
DA:202,9
DA:203,9
DA:205,34
DA:208,124
DA:209,1364
DA:210,124
DA:212,124
DA:213,124
DA:214,124
DA:215,124
DA:216,124
DA:217,124
DA:218,124
DA:219,124
DA:220,124
DA:221,124
DA:223,1364
DA:224,1240
DA:226,124
DA:228,1364
DA:231,10
DA:232,10
DA:234,10
DA:235,5
DA:238,95
DA:239,10
DA:241,10
DA:242,10
DA:243,10
DA:244,10
DA:245,10
DA:246,10
DA:247,10
DA:249,10
DA:250,5
DA:252,85
DA:253,75
DA:255,10
DA:257,95
DA:260,139
DA:261,139
DA:262,278
DA:263,139
DA:265,431
DA:266,292
DA:267,624
DA:268,332
DA:269,332
DA:270,332
DA:271,292
DA:273,139
DA:275,278
DA:278,5
DA:279,5
DA:280,10
DA:281,5
DA:283,5
DA:284,40
DA:285,35
DA:287,10
DA:290,5
DA:292,467
DA:293,533
LF:186
LH:180
end_of_record
TN:
SF:/home/tobias/taller2/appServer/DrTinder/source/Servidor/Parsers/JsonParser.cpp
FN:12,_ZN10JsonParserC2Ev
FN:16,_ZN10JsonParser7parsingESs
FN:20,_ZN10JsonParser13makeInterestsEN4Json5ValueER9Interests
FN:38,_ZN10JsonParser8makeUserEN4Json5ValueER4User
FN:71,_ZN10JsonParser15interestsToJsonEP9Interests
FN:90,_ZN10JsonParser10userToJsonEP4Userb
FN:110,_ZN10JsonParser11photoToJsonEPSs
FN:116,_ZN10JsonParser8getValueESs
FN:120,_ZN10JsonParser11getAsStringEN4Json5ValueE
FN:123,_ZN10JsonParserD0Ev
FN:123,_ZN10JsonParserD2Ev
FN:125,_Z41__static_initialization_and_destruction_0ii
FN:125,_GLOBAL__sub_I__ZN10JsonParserC2Ev
FNDA:112,_ZN10JsonParser7parsingESs
FNDA:65,_ZN10JsonParser11getAsStringEN4Json5ValueE
FNDA:42,_ZN10JsonParser10userToJsonEP4Userb
FNDA:1118,_ZN10JsonParser13makeInterestsEN4Json5ValueER9Interests
FNDA:22,_Z41__static_initialization_and_destruction_0ii
FNDA:0,_ZN10JsonParserD0Ev
FNDA:12,_ZN10JsonParser11photoToJsonEPSs
FNDA:205,_ZN10JsonParser8getValueESs
FNDA:2457,_ZN10JsonParserC2Ev
FNDA:22,_GLOBAL__sub_I__ZN10JsonParserC2Ev
FNDA:42,_ZN10JsonParser15interestsToJsonEP9Interests
FNDA:1118,_ZN10JsonParser8makeUserEN4Json5ValueER4User
FNDA:2457,_ZN10JsonParserD2Ev
FNF:13
FNH:12
DA:12,2457
DA:15,2457
DA:16,112
DA:17,112
DA:20,1118
DA:21,1118
DA:22,2236
DA:23,1118
DA:24,0
DA:26,1118
DA:29,1118
DA:30,3919
DA:31,2801
DA:32,2801
DA:33,3919
DA:36,1118
DA:38,1118
DA:39,1118
DA:40,2236
DA:41,2236
DA:42,1118
DA:43,17
DA:45,1101
DA:49,2236
DA:50,1118
DA:51,1118
DA:53,1118
DA:55,1118
DA:57,1118
DA:59,1118
DA:61,1118
DA:63,1113
DA:66,1118
DA:67,2236
DA:69,1118
DA:71,42
DA:72,42
DA:73,84
DA:74,42
DA:76,101
DA:77,59
DA:78,128
DA:79,69
DA:80,138
DA:81,69
DA:82,69
DA:83,69
DA:84,69
DA:85,59
DA:87,84
DA:90,42
DA:91,42
DA:92,84
DA:94,42
DA:95,22
DA:97,42
DA:98,42
DA:99,42
DA:100,42
DA:101,42
DA:102,42
DA:103,42
DA:104,42
DA:105,42
DA:106,42
DA:107,84
DA:110,12
DA:111,12
DA:112,12
DA:113,12
DA:116,205
DA:117,205
DA:120,65
DA:121,65
DA:123,2457
DA:125,2523
LF:76
LH:75
end_of_record
TN:
SF:/home/tobias/taller2/appServer/DrTinder/source/Servidor/Parsers/UserParser.cpp
FN:10,_ZN10UserParserC2Ev
FN:14,_ZN10UserParser13JsonToCsvFullEN4Json5ValueERSsSs
FN:25,_ZN10UserParser13CsvToJsonFullESsRN4Json5ValueEb
FN:34,_ZN10UserParser10JsonToListESs
FN:50,_ZN10UserParser9ListToCsvESt4listIP4UserSaIS2_EE
FN:59,_ZN10UserParserD0Ev
FN:59,_ZN10UserParserD2Ev
FN:61,_GLOBAL__sub_I__ZN10UserParserC2Ev
FN:61,_Z41__static_initialization_and_destruction_0ii
FNDA:22,_Z41__static_initialization_and_destruction_0ii
FNDA:57,_ZN10UserParserD2Ev
FNDA:18,_ZN10UserParser13CsvToJsonFullESsRN4Json5ValueEb
FNDA:57,_ZN10UserParserC2Ev
FNDA:39,_ZN10UserParser13JsonToCsvFullEN4Json5ValueERSsSs
FNDA:22,_GLOBAL__sub_I__ZN10UserParserC2Ev
FNDA:8,_ZN10UserParser9ListToCsvESt4listIP4UserSaIS2_EE
FNDA:18,_ZN10UserParser10JsonToListESs
FNDA:0,_ZN10UserParserD0Ev
FNF:9
FNH:8
DA:10,57
DA:13,57
DA:14,39
DA:15,39
DA:16,78
DA:17,78
DA:18,39
DA:20,39
DA:22,78
DA:23,39
DA:25,18
DA:26,18
DA:27,36
DA:28,36
DA:29,18
DA:31,36
DA:32,18
DA:34,18
DA:35,18
DA:36,18
DA:37,18
DA:38,36
DA:39,18
DA:40,1092
DA:41,1074
DA:42,2148
DA:43,1074
DA:44,1074
DA:45,1074
DA:46,1074
DA:47,36
DA:50,8
DA:51,8
DA:52,8
DA:53,8
DA:54,73
DA:55,65
DA:57,8
DA:59,57
DA:61,123
LF:40
LH:40
end_of_record
TN:
SF:/home/tobias/taller2/appServer/DrTinder/source/Servidor/RequestHandler.cpp
FN:7,_ZN14RequestHandlerC2EP12http_messageP13mg_connectionSs
FN:14,_ZN14RequestHandlerD2Ev
FN:18,_ZN14RequestHandler12sendHttpLineEi
FN:22,_ZN14RequestHandler13sendHttpReplyESsSsi
FN:40,_ZN14RequestHandler13validateTokenEv
FN:57,_ZN14RequestHandler16rejectConnectionEi
FN:63,_ZN14RequestHandler18parseAuthorizationERSsS0_
FN:82,_ZN14RequestHandler5loginEv
FN:86,_ZN14RequestHandler14listenUserPostEv
FN:114,_ZN14RequestHandler13listenUserGetEv
FN:129,_ZN14RequestHandler17listenUserRequestEv
FN:148,_ZN14RequestHandler15listenUsersPostEv
FN:175,_ZN14RequestHandler14listenUsersGetEv
FN:182,_ZN14RequestHandler14listenUsersPutEv
FN:196,_ZN14RequestHandler17listenUsersDeleteEv
FN:203,_ZN14RequestHandler18listenUsersRequestEv
FN:224,_ZN14RequestHandler21listenInterestRequestEv
FN:251,_ZN14RequestHandler17listenChatRequestEv
FN:266,_ZN14RequestHandler14listenPhotoGetEv
FN:283,_ZN14RequestHandler15listenPhotoPostEv
FN:291,_ZN14RequestHandler18listenPhotoRequestEv
FN:304,_ZN14RequestHandler20listenChatNewRequestEv
FN:316,_ZN14RequestHandler20listenMatchesRequestEv
FN:330,_ZN14RequestHandler13listenChatGetEv
FN:344,_ZN14RequestHandler14listenChatPostEv
FN:360,_ZN14RequestHandler16listenMatchesGetEv
FN:371,_ZN14RequestHandler17listenMatchesPostEv
FN:390,_ZN14RequestHandler16listenNewChatGetEv
FN:403,_Z41__static_initialization_and_destruction_0ii
FN:403,_GLOBAL__sub_I__ZN14RequestHandlerC2EP12http_messageP13mg_connectionSs
FNDA:1,_ZN14RequestHandler17listenUsersDeleteEv
FNDA:158,_ZN14RequestHandlerC2EP12http_messageP13mg_connectionSs
FNDA:10,_ZN14RequestHandler12sendHttpLineEi
FNDA:4,_ZN14RequestHandler20listenMatchesRequestEv
FNDA:5,_GLOBAL__sub_I__ZN14RequestHandlerC2EP12http_messageP13mg_connectionSs
FNDA:0,_ZN14RequestHandler14listenUsersGetEv
FNDA:17,_ZN14RequestHandler18parseAuthorizationERSsS0_
FNDA:40,_ZN14RequestHandler13sendHttpReplyESsSsi
FNDA:3,_ZN14RequestHandler13listenUserGetEv
FNDA:2,_ZN14RequestHandler20listenChatNewRequestEv
FNDA:2,_ZN14RequestHandler15listenUsersPostEv
FNDA:2,_ZN14RequestHandler16listenMatchesGetEv
FNDA:1,_ZN14RequestHandler16rejectConnectionEi
FNDA:1,_ZN14RequestHandler21listenInterestRequestEv
FNDA:1,_ZN14RequestHandler15listenPhotoPostEv
FNDA:2,_ZN14RequestHandler13listenChatGetEv
FNDA:158,_ZN14RequestHandlerD2Ev
FNDA:22,_ZN14RequestHandler13validateTokenEv
FNDA:22,_ZN14RequestHandler5loginEv
FNDA:2,_ZN14RequestHandler16listenNewChatGetEv
FNDA:1,_ZN14RequestHandler14listenPhotoGetEv
FNDA:2,_ZN14RequestHandler17listenMatchesPostEv
FNDA:15,_ZN14RequestHandler14listenUserPostEv
FNDA:5,_Z41__static_initialization_and_destruction_0ii
FNDA:2,_ZN14RequestHandler14listenChatPostEv
FNDA:2,_ZN14RequestHandler14listenUsersPutEv
FNDA:18,_ZN14RequestHandler17listenUserRequestEv
FNDA:6,_ZN14RequestHandler18listenUsersRequestEv
FNDA:2,_ZN14RequestHandler18listenPhotoRequestEv
FNDA:4,_ZN14RequestHandler17listenChatRequestEv
FNF:30
FNH:29
DA:7,158
DA:8,158
DA:9,158
DA:10,158
DA:11,158
DA:12,158
DA:14,158
DA:15,158
DA:16,158
DA:18,10
DA:19,10
DA:20,10
DA:22,40
DA:23,40
DA:29,40
DA:30,40
DA:31,40
DA:32,40
DA:33,6
DA:35,34
DA:38,40
DA:40,22
DA:42,22
DA:43,22
DA:44,0
DA:45,0
DA:47,22
DA:48,22
DA:49,22
DA:50,3
DA:51,3
DA:53,19
DA:54,19
DA:57,1
DA:58,1
DA:59,1
DA:60,1
DA:61,1
DA:63,17
DA:66,17
DA:67,17
DA:68,17
DA:71,17
DA:72,0
DA:73,0
DA:74,0
DA:76,17
DA:77,17
DA:78,17
DA:79,17
DA:82,22
DA:83,22
DA:86,15
DA:87,15
DA:88,30
DA:89,15
DA:90,0
DA:92,15
DA:93,0
DA:94,0
DA:96,15
DA:97,15
DA:99,15
DA:101,15
DA:102,0
DA:103,0
DA:105,15
DA:106,15
DA:107,0
DA:109,15
DA:110,15
DA:111,15
DA:114,3
DA:115,3
DA:117,3
DA:119,3
DA:120,0
DA:121,3
DA:123,3
DA:124,3
DA:126,3
DA:129,18
DA:130,18
DA:131,18
DA:132,15
DA:133,15
DA:136,3
DA:137,0
DA:140,3
DA:141,3
DA:142,3
DA:145,0
DA:148,2
DA:149,2
DA:151,4
DA:152,2
DA:153,0
DA:155,2
DA:156,2
DA:157,0
DA:158,0
DA:161,2
DA:162,3
DA:163,1
DA:164,0
DA:165,0
DA:167,1
DA:170,1
DA:171,1
DA:172,2
DA:175,0
DA:176,0
DA:177,0
DA:178,0
DA:179,0
DA:180,0
DA:182,2
DA:183,2
DA:185,2
DA:186,2
DA:187,0
DA:188,0
DA:189,2
DA:191,2
DA:192,2
DA:193,2
DA:196,1
DA:197,1
DA:198,1
DA:199,1
DA:200,1
DA:201,1
DA:203,6
DA:204,6
DA:205,6
DA:206,2
DA:208,6
DA:209,9
DA:212,3
DA:213,0
DA:214,3
DA:215,2
DA:216,1
DA:217,1
DA:219,0
DA:224,1
DA:225,1
DA:226,1
DA:227,0
DA:230,1
DA:231,0
DA:234,1
DA:236,1
DA:237,1
DA:238,0
DA:239,0
DA:241,1
DA:242,1
DA:243,1
DA:244,1
DA:246,0
DA:248,1
DA:251,4
DA:252,4
DA:253,4
DA:254,4
DA:256,0
DA:257,4
DA:258,2
DA:259,2
DA:260,2
DA:261,0
DA:262,0
DA:266,0
DA:267,1
DA:268,1
DA:269,0
DA:270,1
DA:271,1
DA:272,0
DA:273,1
DA:274,0
DA:275,1
DA:276,1
DA:277,0
DA:278,0
DA:279,1
DA:280,1
DA:283,0
DA:284,1
DA:285,1
DA:286,1
DA:287,1
DA:288,1
DA:289,1
DA:290,1
DA:291,0
DA:292,2
DA:293,2
DA:294,4
DA:295,0
DA:296,2
DA:297,1
DA:298,1
DA:299,1
DA:300,0
DA:301,0
DA:304,0
DA:305,2
DA:306,2
DA:307,4
DA:308,0
DA:309,2
DA:310,2
DA:311,0
DA:312,0
DA:316,0
DA:317,4
DA:318,4
DA:319,8
DA:320,0
DA:321,4
DA:322,2
DA:323,2
DA:324,2
DA:325,0
DA:326,0
DA:330,0
DA:331,2
DA:332,2
DA:334,0
DA:335,2
DA:336,0
DA:337,2
DA:338,1
DA:339,1
DA:340,1
DA:341,1
DA:342,0
DA:343,1
DA:344,2
DA:345,1
DA:347,2
DA:348,2
DA:349,3
DA:350,1
DA:351,1
DA:352,1
DA:353,1
DA:354,2
DA:355,0
DA:356,2
DA:357,2
DA:359,2
DA:360,2
DA:361,0
DA:362,0
DA:363,2
DA:364,2
DA:365,0
DA:366,2
DA:367,0
DA:368,0
DA:369,2
DA:371,2
DA:372,2
DA:373,2
DA:376,2
DA:377,2
DA:378,2
DA:379,2
DA:380,2
DA:381,2
DA:382,0
DA:383,0
DA:384,2
DA:385,2
DA:386,0
DA:387,2
DA:388,2
DA:390,0
DA:391,0
DA:393,2
DA:394,2
DA:396,2
DA:397,0
DA:398,2
DA:399,0
DA:401,2
DA:402,2
DA:403,8
DA:406,2
DA:407,2
DA:409,2
DA:412,2
DA:414,2
DA:415,0
DA:416,0
DA:417,2
DA:420,2
DA:421,2
DA:422,2
DA:423,2
DA:425,0
DA:426,0
DA:427,2
DA:428,9
LF:307
LH:230
end_of_record
TN:
SF:/home/tobias/taller2/appServer/DrTinder/source/Servidor/Server.cpp
FN:7,_ZN6ServerC2Ev
FN:17,_ZN6ServerC2ESsSs
FN:26,_ZN6ServerD0Ev
FN:26,_ZN6ServerD2Ev
FN:33,_ZN6Server12updateServerEv
FN:39,_ZN6Server3runEv
FN:46,_ZN6Server11handleEventEP13mg_connectioniPv
FN:77,_ZN6Server10setUsersDBEPN7rocksdb2DBE
FN:81,_ZN6Server9setChatDBEPN7rocksdb2DBE
FN:85,_ZN6Server10setLikesDBEPN7rocksdb2DBE
FN:87,_Z41__static_initialization_and_destruction_0ii
FN:87,_GLOBAL__sub_I__ZN6Server12linkToSharedE
FNDA:1859,_ZN6Server3runEv
FNDA:3,_ZN6ServerC2ESsSs
FNDA:3,_ZN6ServerD2Ev
FNDA:5,_GLOBAL__sub_I__ZN6Server12linkToSharedE
FNDA:3,_ZN6Server12updateServerEv
FNDA:158,_ZN6Server11handleEventEP13mg_connectioniPv
FNDA:0,_ZN6ServerD0Ev
FNDA:3,_ZN6Server10setLikesDBEPN7rocksdb2DBE
FNDA:0,_ZN6ServerC2Ev
FNDA:3,_ZN6Server9setChatDBEPN7rocksdb2DBE
FNDA:5,_Z41__static_initialization_and_destruction_0ii
FNDA:3,_ZN6Server10setUsersDBEPN7rocksdb2DBE
FNF:12
FNH:10
DA:5,5
DA:7,0
DA:8,0
DA:9,0
DA:10,0
DA:11,0
DA:12,0
DA:13,0
DA:14,0
DA:15,0
DA:17,3
DA:18,3
DA:19,3
DA:20,3
DA:21,3
DA:22,3
DA:23,3
DA:24,3
DA:26,3
DA:27,3
DA:28,3
DA:29,3
DA:30,3
DA:31,3
DA:33,3
DA:34,3
DA:35,3
DA:36,3
DA:37,3
DA:39,1859
DA:40,1859
DA:41,0
DA:43,1859
DA:44,1859
DA:46,158
DA:47,158
DA:49,158
DA:51,158
DA:53,38
DA:54,38
DA:55,6
DA:56,32
DA:57,1
DA:58,31
DA:59,4
DA:60,27
DA:61,2
DA:62,25
DA:63,18
DA:64,7
DA:65,4
DA:66,3
DA:67,2
DA:69,1
DA:71,38
DA:73,120
DA:74,158
DA:75,158
DA:77,3
DA:78,3
DA:79,3
DA:81,3
DA:82,3
DA:83,3
DA:85,3
DA:86,3
DA:87,18
LF:67
LH:57
end_of_record
TN:
SF:/home/tobias/taller2/appServer/DrTinder/source/Servidor/ServerUtils.cpp
FN:16,_Z11intToStringiRSs
FN:22,_Z8is_equalPK6mg_strSs
FN:26,_Z6equalsSsSs
FN:30,_Z9isIntegerRSs
FN:40,_Z7isFloatSs
FN:48,_Z12setCnfgValueP10JsonParserSsRSs
FN:56,_Z14readConfigFileRSsS_S_
FN:73,_Z12makeUsernameRSs
FN:83,_Z9configureiPPcRSsS1_
FN:140,_Z41__static_initialization_and_destruction_0ii
FN:140,_GLOBAL__sub_I__Z11intToStringiRSs
FNDA:142,_Z6equalsSsSs
FNDA:32,_Z14readConfigFileRSsS_S_
FNDA:96,_Z12setCnfgValueP10JsonParserSsRSs
FNDA:22,_GLOBAL__sub_I__Z11intToStringiRSs
FNDA:156,_Z7isFloatSs
FNDA:883,_Z12makeUsernameRSs
FNDA:32,_Z9configureiPPcRSsS1_
FNDA:247,_Z8is_equalPK6mg_strSs
FNDA:5,_Z11intToStringiRSs
FNDA:157,_Z9isIntegerRSs
FNDA:22,_Z41__static_initialization_and_destruction_0ii
FNF:11
FNH:11
DA:16,5
DA:17,5
DA:18,5
DA:19,5
DA:20,5
DA:22,247
DA:23,247
DA:26,142
DA:27,142
DA:30,157
DA:32,157
DA:35,142
DA:37,142
DA:40,156
DA:41,156
DA:43,156
DA:45,156
DA:48,96
DA:49,96
DA:50,96
DA:51,96
DA:52,96
DA:53,96
DA:54,96
DA:56,32
DA:57,32
DA:58,32
DA:59,32
DA:60,64
DA:61,224
DA:62,160
DA:64,32
DA:65,32
DA:66,32
DA:67,32
DA:69,64
DA:70,32
DA:71,32
DA:73,883
DA:74,883
DA:75,1766
DA:78,883
DA:81,883
DA:83,32
DA:84,64
DA:87,32
DA:90,59
DA:91,27
DA:92,27
DA:93,5
DA:94,22
DA:95,5
DA:96,17
DA:97,7
DA:98,10
DA:99,0
DA:101,27
DA:104,32
DA:105,25
DA:108,32
DA:109,7
DA:110,7
DA:112,0
DA:117,64
DA:118,32
DA:119,32
DA:121,32
DA:123,32
DA:124,0
DA:125,0
DA:127,32
DA:130,32
DA:131,0
DA:132,0
DA:134,32
DA:137,32
DA:138,64
DA:140,98
LF:78
LH:72
end_of_record
TN:
SF:/home/tobias/taller2/appServer/DrTinder/source/Servidor/SharedServerClient.cpp
FN:7,_ZN18SharedServerClientC2ESs
FN:14,_ZN18SharedServerClientD2Ev
FN:19,_ZN18SharedServerClient7formUrlEPSsm
FN:27,_ZN18SharedServerClient5validEPN10RestClient8ResponseE
FN:40,_ZN18SharedServerClient7setBodyEPSsPN10RestClient8ResponseE
FN:51,_ZN18SharedServerClient8getUsersEPSs
FN:59,_ZN18SharedServerClient7getUserESsPSs
FN:67,_ZN18SharedServerClient9postUsersERSsPSs
FN:75,_ZN18SharedServerClient10changeUserESsSs
FN:82,_ZN18SharedServerClient15changeUserPhotoESsSs
FN:91,_ZN18SharedServerClient10deleteUserESsPSs
FN:99,_ZN18SharedServerClient17getUsersInterestsEPSs
FN:106,_ZN18SharedServerClient18postUsersInterestsEPSs
FN:113,_ZN18SharedServerClient12getUserPhotoESsRSs
FN:124,_ZN18SharedServerClient16getInterestPhotoESsRSs
FN:129,_Z41__static_initialization_and_destruction_0ii
FN:129,_GLOBAL__sub_I__ZN18SharedServerClientC2ESs
FNDA:206,_ZN18SharedServerClientC2ESs
FNDA:7,_ZN18SharedServerClient16getInterestPhotoESsRSs
FNDA:22,_GLOBAL__sub_I__ZN18SharedServerClientC2ESs
FNDA:206,_ZN18SharedServerClientD2Ev
FNDA:16,_ZN18SharedServerClient9postUsersERSsPSs
FNDA:3,_ZN18SharedServerClient17getUsersInterestsEPSs
FNDA:42,_ZN18SharedServerClient7getUserESsPSs
FNDA:16,_ZN18SharedServerClient8getUsersEPSs
FNDA:7,_ZN18SharedServerClient12getUserPhotoESsRSs
FNDA:100,_ZN18SharedServerClient7setBodyEPSsPN10RestClient8ResponseE
FNDA:22,_Z41__static_initialization_and_destruction_0ii
FNDA:7,_ZN18SharedServerClient15changeUserPhotoESsSs
FNDA:159,_ZN18SharedServerClient5validEPN10RestClient8ResponseE
FNDA:159,_ZN18SharedServerClient7formUrlEPSsm
FNDA:16,_ZN18SharedServerClient10deleteUserESsPSs
FNDA:25,_ZN18SharedServerClient10changeUserESsSs
FNDA:27,_ZN18SharedServerClient18postUsersInterestsEPSs
FNF:17
FNH:17
DA:7,206
DA:8,206
DA:9,206
DA:10,205
DA:11,206
DA:12,206
DA:14,206
DA:15,206
DA:16,206
DA:17,206
DA:19,159
DA:20,159
DA:21,429
DA:22,270
DA:24,159
DA:27,159
DA:28,159
DA:29,33
DA:30,33
DA:32,126
DA:33,0
DA:34,0
DA:36,126
DA:37,126
DA:40,100
DA:41,100
DA:42,100
DA:43,100
DA:44,94
DA:46,6
DA:51,16
DA:52,32
DA:53,32
DA:54,32
DA:55,48
DA:59,42
DA:60,126
DA:61,84
DA:62,84
DA:63,168
DA:67,16
DA:68,32
DA:69,32
DA:70,32
DA:71,48
DA:75,25
DA:76,75
DA:77,50
DA:78,50
DA:79,100
DA:82,7
DA:83,28
DA:84,14
DA:85,14
DA:86,14
DA:87,14
DA:88,35
DA:91,16
DA:92,48
DA:93,32
DA:94,32
DA:95,64
DA:99,3
DA:100,6
DA:101,6
DA:102,6
DA:103,9
DA:106,27
DA:107,54
DA:108,54
DA:109,54
DA:110,81
DA:113,7
DA:114,7
DA:115,7
DA:116,7
DA:117,7
DA:118,7
DA:119,7
DA:121,0
DA:124,7
DA:125,28
DA:126,14
DA:127,14
DA:128,35
DA:129,66
LF:86
LH:83
end_of_record
TN:
SF:/home/tobias/taller2/appServer/DrTinder/source/Servidor/Tokenizer.cpp
FN:12,_ZN9TokenizerC2EP15DatabaseManager
FN:18,_ZN9Tokenizer16timeStampExpiredESs
FN:45,_ZN9Tokenizer15getNowTimeStampEv
FN:62,_ZN9Tokenizer8newTokenESsSs
FN:89,_ZN9Tokenizer10hasExpiredESs
FN:98,_ZN9Tokenizer6removeESs
FN:102,_ZN9TokenizerD2Ev
FN:102,_ZN9TokenizerD0Ev
FN:104,_Z41__static_initialization_and_destruction_0ii
FN:104,_GLOBAL__sub_I__ZN9TokenizerC2EP15DatabaseManager
FNDA:194,_ZN9TokenizerC2EP15DatabaseManager
FNDA:34,_ZN9Tokenizer15getNowTimeStampEv
FNDA:182,_ZN9TokenizerD0Ev
FNDA:22,_GLOBAL__sub_I__ZN9TokenizerC2EP15DatabaseManager
FNDA:34,_ZN9Tokenizer8newTokenESsSs
FNDA:22,_Z41__static_initialization_and_destruction_0ii
FNDA:192,_ZN9TokenizerD2Ev
FNDA:40,_ZN9Tokenizer10hasExpiredESs
FNDA:35,_ZN9Tokenizer16timeStampExpiredESs
FNDA:31,_ZN9Tokenizer6removeESs
FNF:10
FNH:10
DA:12,194
DA:13,194
DA:15,194
DA:18,35
DA:19,35
DA:20,35
DA:22,70
DA:23,70
DA:24,280
DA:25,210
DA:26,210
DA:28,35
DA:29,0
DA:31,35
DA:32,35
DA:33,35
DA:34,35
DA:35,35
DA:36,35
DA:37,35
DA:39,35
DA:41,70
DA:45,34
DA:46,34
DA:47,34
DA:48,68
DA:49,34
DA:50,34
DA:51,34
DA:52,34
DA:53,34
DA:54,34
DA:56,34
DA:57,34
DA:58,34
DA:59,68
DA:62,34
DA:65,34
DA:67,68
DA:68,34
DA:69,34
DA:73,34
DA:74,34
DA:75,34
DA:78,578
DA:79,544
DA:82,34
DA:84,34
DA:85,68
DA:89,40
DA:90,40
DA:91,40
DA:92,35
DA:94,5
DA:98,31
DA:99,31
DA:100,31
DA:102,374
DA:104,440
LF:59
LH:58
end_of_record
TN:
SF:/home/tobias/taller2/appServer/DrTinder/source/Servidor/User.cpp
FN:10,_ZN4UserC2Ev
FN:15,_ZN4User12setInterestsE9Interests
FN:19,_ZN4User11addInterestESsSs
FN:23,_ZN4User14removeInterestESsSs
FN:27,_ZN4User5setIdEi
FN:31,_ZN4User6setAgeEi
FN:34,_ZN4User11setLocationEff
FN:39,_ZN4User7setMailESs
FN:43,_ZN4User8setAliasESs
FN:47,_ZN4User7setNameESs
FN:51,_ZN4User6setSexESs
FN:55,_ZN4User13setCommonDataESsSsSsSs
FN:62,_ZN4User14setDescriptionESs
FN:66,_ZN4User8setPhotoESs
FN:70,_ZN4User7getMailEv
FN:73,_ZN4User7getNameEv
FN:76,_ZN4User8getAliasEv
FN:79,_ZN4User14getDescriptionEv
FN:82,_ZN4User8getPhotoEv
FN:85,_ZN4User6getSexEv
FN:88,_ZN4User5getIDEv
FN:91,_ZN4User6getAgeEv
FN:94,_ZN4User12getInterestsEv
FN:97,_ZN4User4getXEv
FN:100,_ZN4User4getYEv
FN:104,_ZN4UserD2Ev
FN:104,_ZN4UserD0Ev
FNDA:75,_ZN4User13setCommonDataESsSsSsSs
FNDA:1118,_ZN4User8setAliasESs
FNDA:105,_ZN4User14setDescriptionESs
FNDA:186,_ZN4User7getNameEv
FNDA:1341,_ZN4UserC2Ev
FNDA:1202,_ZN4User7setNameESs
FNDA:1232,_ZN4User5setIdEi
FNDA:1118,_ZN4User7setMailESs
FNDA:501,_ZN4User12getInterestsEv
FNDA:457,_ZN4User6getSexEv
FNDA:240,_ZN4User6getAgeEv
FNDA:1227,_ZN4User12setInterestsE9Interests
FNDA:42,_ZN4User8getPhotoEv
FNDA:1277,_ZN4User6setAgeEi
FNDA:881,_ZN4User5getIDEv
FNDA:207,_ZN4User4getYEv
FNDA:1202,_ZN4User6setSexESs
FNDA:212,_ZN4User4getXEv
FNDA:0,_ZN4User14removeInterestESsSs
FNDA:154,_ZN4User14getDescriptionEv
FNDA:186,_ZN4User8getAliasEv
FNDA:1341,_ZN4UserD2Ev
FNDA:1551,_ZN4User7getMailEv
FNDA:1143,_ZN4UserD0Ev
FNDA:1277,_ZN4User11setLocationEff
FNDA:1138,_ZN4User8setPhotoESs
FNDA:40,_ZN4User11addInterestESsSs
FNF:27
FNH:26
DA:10,1341
DA:11,1341
DA:12,1341
DA:13,1341
DA:15,1227
DA:16,1227
DA:17,1227
DA:19,40
DA:20,40
DA:21,40
DA:23,0
DA:24,0
DA:25,0
DA:27,1232
DA:28,1232
DA:29,1232
DA:31,1277
DA:32,1277
DA:33,1277
DA:34,1277
DA:35,1277
DA:36,1277
DA:37,1277
DA:39,1118
DA:40,1118
DA:41,1118
DA:43,1118
DA:44,1118
DA:45,1118
DA:47,1202
DA:48,1202
DA:49,1202
DA:51,1202
DA:52,1202
DA:53,1202
DA:55,75
DA:56,75
DA:57,75
DA:58,75
DA:59,75
DA:60,75
DA:62,105
DA:63,105
DA:64,105
DA:66,1138
DA:67,1138
DA:68,1138
DA:70,1551
DA:71,1551
DA:73,186
DA:74,186
DA:76,186
DA:77,186
DA:79,154
DA:80,154
DA:82,42
DA:83,42
DA:85,457
DA:86,457
DA:88,881
DA:89,881
DA:91,240
DA:92,240
DA:94,501
DA:95,501
DA:97,212
DA:98,212
DA:100,207
DA:101,207
DA:104,2484
DA:106,2484
LF:71
LH:68
end_of_record
TN:
SF:/home/tobias/taller2/appServer/DrTinder/source/Servidor/main.cpp
FN:13,_Z9hasToQuitRbRSt5mutex
FN:23,_Z13setUpDatabasePPN7rocksdb2DBESs
FN:38,main
FN:75,_GLOBAL__sub_I__ZN2el4base5utils13s_currentUserE
FN:75,_Z41__static_initialization_and_destruction_0ii
FNDA:9,_Z13setUpDatabasePPN7rocksdb2DBESs
FNDA:3,_GLOBAL__sub_I__ZN2el4base5utils13s_currentUserE
FNDA:3,_Z41__static_initialization_and_destruction_0ii
FNDA:3,_Z9hasToQuitRbRSt5mutex
FNDA:3,main
FNF:5
FNH:5
DA:7,3
DA:13,3
DA:14,3
DA:15,9
DA:16,3
DA:18,3
DA:19,3
DA:20,3
DA:21,3
DA:23,9
DA:24,9
DA:25,9
DA:27,9
DA:29,18
DA:30,9
DA:31,0
DA:33,9
DA:34,9
DA:35,9
DA:38,3
DA:39,3
DA:40,6
DA:41,3
DA:42,6
DA:45,3
DA:47,3
DA:50,3
DA:52,3
DA:54,3
DA:55,3
DA:56,3
DA:58,3
DA:59,3
DA:60,3
DA:61,6
DA:63,3
DA:64,1865
DA:65,1859
DA:66,1859
DA:67,1859
DA:69,3
DA:71,3
DA:72,3
DA:73,3
DA:74,6
DA:75,9
LF:46
LH:45
end_of_record
TN:
SF:/home/tobias/taller2/appServer/DrTinder/source/Servidor/matches/UserMatcher.cpp
FN:14,_ZN11UserMatcherC2Ev
FN:26,_ZN11UserMatcher21filterPossibleMatchesEP4UserPSt4listIS1_SaIS1_EESs
FN:47,_ZN11UserMatcher8sameUserEP4UserS1_
FN:51,_ZN11UserMatcher13userInMatchesEP4UserSs
FN:66,_ZN11UserMatcher8containsESt6vectorISsSaISsEERKSs
FN:70,_ZN11UserMatcher19isLookingForUserSexEP4UserS1_
FN:87,_ZN11UserMatcher12isInAgeRangeEP4UserS1_
FN:92,_ZN11UserMatcher8isNearbyEP4UserS1_
FN:104,_Z23atLeastOneValueInCommonSt6vectorISsSaISsEES1_
FN:115,_ZN11UserMatcher11containsKeyERSt3mapISsSt6vectorISsSaISsEESt4lessISsESaISt4pairIKSsS3_EEERS7_
FN:119,_ZN11UserMatcher17hasCommonInterestEP4UserS1_
FN:141,_ZN11UserMatcherD2Ev
FN:141,_ZN11UserMatcherD0Ev
FN:143,_GLOBAL__sub_I__ZN11UserMatcherC2Ev
FN:143,_Z41__static_initialization_and_destruction_0ii
FNDA:0,_ZN11UserMatcherD0Ev
FNDA:12,_ZN11UserMatcher11containsKeyERSt3mapISsSt6vectorISsSaISsEESt4lessISsESaISt4pairIKSsS3_EEERS7_
FNDA:18,_ZN11UserMatcher17hasCommonInterestEP4UserS1_
FNDA:22,_Z41__static_initialization_and_destruction_0ii
FNDA:275,_ZN11UserMatcher13userInMatchesEP4UserSs
FNDA:22,_GLOBAL__sub_I__ZN11UserMatcherC2Ev
FNDA:275,_ZN11UserMatcher19isLookingForUserSexEP4UserS1_
FNDA:12,_Z23atLeastOneValueInCommonSt6vectorISsSaISsEES1_
FNDA:18,_ZN11UserMatcherD2Ev
FNDA:18,_ZN11UserMatcher21filterPossibleMatchesEP4UserPSt4listIS1_SaIS1_EESs
FNDA:18,_ZN11UserMatcherC2Ev
FNDA:42,_ZN11UserMatcher8containsESt6vectorISsSaISsEERKSs
FNDA:18,_ZN11UserMatcher8isNearbyEP4UserS1_
FNDA:27,_ZN11UserMatcher12isInAgeRangeEP4UserS1_
FNDA:290,_ZN11UserMatcher8sameUserEP4UserS1_
FNF:15
FNH:14
DA:14,18
DA:16,18
DA:26,18
DA:27,18
DA:28,18
DA:29,18
DA:30,308
DA:31,290
DA:32,290
DA:33,275
DA:34,577
DA:35,293
DA:36,12
DA:37,12
DA:43,18
DA:47,290
DA:48,290
DA:51,275
DA:52,275
DA:53,550
DA:54,550
DA:55,550
DA:56,550
DA:57,0
DA:58,0
DA:59,0
DA:60,0
DA:62,0
DA:63,550
DA:66,42
DA:67,42
DA:70,275
DA:71,275
DA:72,550
DA:74,275
DA:76,550
DA:78,275
DA:79,42
DA:80,42
DA:81,27
DA:82,15
DA:84,523
DA:87,27
DA:88,27
DA:89,27
DA:92,18
DA:93,18
DA:94,18
DA:95,18
DA:96,18
DA:98,18
DA:100,18
DA:104,12
DA:105,12
DA:106,18
DA:107,18
DA:108,12
DA:110,6
DA:111,0
DA:112,0
DA:115,12
DA:116,12
DA:119,18
DA:120,18
DA:121,18
DA:123,18
DA:124,36
DA:126,18
DA:127,12
DA:128,12
DA:129,12
DA:130,12
DA:131,12
DA:132,12
DA:133,12
DA:134,0
DA:137,0
DA:138,24
DA:141,18
DA:143,84
LF:80
LH:71
end_of_record
