TN:
SF:/home/tobias/taller2/appServer/DrTinder/source/Servidor/ChatDatabaseManager.cpp
FN:6,_ZN19ChatDatabaseManagerC2EPN7rocksdb2DBE
FN:12,_ZN19ChatDatabaseManager11saveMessageERSsS0_S0_
FN:28,_ZN19ChatDatabaseManager10getHistoryERSsS0_S0_
FN:39,_ZN19ChatDatabaseManager8addEntryESsSsSs
FN:53,_GLOBAL__sub_I__ZN19ChatDatabaseManagerC2EPN7rocksdb2DBE
FN:53,_Z41__static_initialization_and_destruction_0ii
FNDA:3,_ZN19ChatDatabaseManager11saveMessageERSsS0_S0_
FNDA:3,_ZN19ChatDatabaseManager10getHistoryERSsS0_S0_
FNDA:6,_Z41__static_initialization_and_destruction_0ii
FNDA:0,_ZN19ChatDatabaseManager8addEntryESsSsSs
FNDA:190,_ZN19ChatDatabaseManagerC2EPN7rocksdb2DBE
FNDA:6,_GLOBAL__sub_I__ZN19ChatDatabaseManagerC2EPN7rocksdb2DBE
FNF:6
FNH:5
DA:6,190
DA:8,190
DA:12,3
DA:13,4
DA:14,4
DA:15,4
DA:17,3
DA:18,2
DA:19,5
DA:21,1
DA:22,0
DA:24,1
DA:25,1
DA:28,3
DA:29,3
DA:30,3
DA:31,0
DA:32,0
DA:35,3
DA:36,3
DA:39,0
DA:40,0
DA:41,0
DA:42,0
DA:44,0
DA:45,0
DA:46,0
DA:47,0
DA:49,0
DA:50,0
DA:52,0
DA:53,18
LF:32
LH:18
end_of_record
TN:
SF:/home/tobias/taller2/appServer/DrTinder/source/Servidor/ChatDatabaseManager.h
FN:7,_ZN19ChatDatabaseManagerD2Ev
FNDA:1,_ZN19ChatDatabaseManagerD2Ev
FNF:1
FNH:1
DA:7,1
LF:1
LH:1
end_of_record
TN:
SF:/home/tobias/taller2/appServer/DrTinder/source/Servidor/DatabaseManager.cpp
FN:9,_ZN15DatabaseManagerC2EPN7rocksdb2DBE
FN:14,_ZN15DatabaseManagerD2Ev
FN:23,_ZN15DatabaseManager12correctEntryESsSs
FN:38,_ZN15DatabaseManager8addEntryESsSs
FN:43,_ZN15DatabaseManager11deleteEntryESs
FN:47,_ZN15DatabaseManager8getEntryESsRSs
FN:58,_ZN15DatabaseManager12replaceEntryESsSs
FN:66,_ZN15DatabaseManager14createIteratorEv
FN:72,_ZN15DatabaseManager15advanceIteratorEv
FN:79,_ZN15DatabaseManager13getActualPairERSsS0_
FN:88,_ZN15DatabaseManager14deleteIteratorEv
FN:98,_ZN15DatabaseManager13validIteratorEv
FN:102,_Z41__static_initialization_and_destruction_0ii
FN:102,_GLOBAL__sub_I__ZN15DatabaseManagerC2EPN7rocksdb2DBE
FNDA:335,_ZN15DatabaseManager15advanceIteratorEv
FNDA:293,_ZN15DatabaseManager8addEntryESsSs
FNDA:6,_Z41__static_initialization_and_destruction_0ii
FNDA:582,_ZN15DatabaseManagerC2EPN7rocksdb2DBE
FNDA:338,_ZN15DatabaseManager13getActualPairERSsS0_
FNDA:1,_ZN15DatabaseManager12replaceEntryESsSs
FNDA:21,_ZN15DatabaseManagerD2Ev
FNDA:6,_GLOBAL__sub_I__ZN15DatabaseManagerC2EPN7rocksdb2DBE
FNDA:10,_ZN15DatabaseManager14deleteIteratorEv
FNDA:10,_ZN15DatabaseManager14createIteratorEv
FNDA:557,_ZN15DatabaseManager8getEntryESsRSs
FNDA:342,_ZN15DatabaseManager13validIteratorEv
FNDA:108,_ZN15DatabaseManager11deleteEntryESs
FNDA:20,_ZN15DatabaseManager12correctEntryESsSs
FNF:14
FNH:14
DA:9,582
DA:10,582
DA:11,582
DA:12,582
DA:14,21
DA:15,21
DA:21,21
DA:23,20
DA:24,20
DA:25,20
DA:26,40
DA:27,20
DA:28,8
DA:29,8
DA:30,12
DA:31,0
DA:32,0
DA:34,12
DA:35,32
DA:38,293
DA:39,293
DA:40,293
DA:43,108
DA:44,108
DA:47,557
DA:48,557
DA:49,1114
DA:50,557
DA:51,147
DA:53,410
DA:54,967
DA:58,1
DA:59,1
DA:60,1
DA:61,1
DA:63,1
DA:64,1
DA:66,10
DA:67,10
DA:68,10
DA:69,10
DA:70,10
DA:72,335
DA:73,335
DA:74,0
DA:76,335
DA:77,335
DA:79,338
DA:80,338
DA:81,0
DA:83,338
DA:84,338
DA:85,338
DA:88,10
DA:89,10
DA:90,10
DA:92,10
DA:93,10
DA:94,10
DA:95,10
DA:98,342
DA:99,342
DA:100,0
DA:101,342
DA:102,18
LF:65
LH:60
end_of_record
TN:
SF:/home/tobias/taller2/appServer/DrTinder/source/Servidor/Interests.cpp
FN:12,_ZN9InterestsC2Ev
FN:17,_ZN9Interests3addESsSs
FN:34,_ZN9Interests6getAllESsRSt6vectorISsSaISsEE
FN:46,_ZN9Interests3hasESsSs
FN:60,_ZN9Interests6removeESsSs
FN:73,_ZN9Interests12allInterestsEv
FN:77,_ZN9InterestsD2Ev
FN:77,_ZN9InterestsD0Ev
FNDA:1545,_ZN9InterestsC2Ev
FNDA:0,_ZN9InterestsD0Ev
FNDA:3,_ZN9Interests6getAllESsRSt6vectorISsSaISsEE
FNDA:6,_ZN9Interests6removeESsSs
FNDA:39,_ZN9Interests3hasESsSs
FNDA:2232,_ZN9InterestsD2Ev
FNDA:2129,_ZN9Interests3addESsSs
FNDA:398,_ZN9Interests12allInterestsEv
FNF:8
FNH:7
DA:12,1545
DA:15,1545
DA:17,2129
DA:18,2129
DA:20,2129
DA:21,411
DA:23,411
DA:24,332
DA:28,1718
DA:29,1718
DA:30,1718
DA:32,2129
DA:34,3
DA:35,3
DA:37,3
DA:39,3
DA:40,3
DA:42,0
DA:46,39
DA:47,39
DA:49,39
DA:51,33
DA:52,33
DA:53,27
DA:57,12
DA:60,6
DA:61,6
DA:63,6
DA:64,6
DA:65,6
DA:66,6
DA:67,6
DA:71,6
DA:73,398
DA:74,398
DA:77,2232
DA:79,2232
LF:37
LH:36
end_of_record
TN:
SF:/home/tobias/taller2/appServer/DrTinder/source/Servidor/Interests.h
FN:17,_ZN9InterestsC2ERKS_
FN:17,_ZN9InterestsaSERKS_
FNDA:363,_ZN9InterestsC2ERKS_
FNDA:697,_ZN9InterestsaSERKS_
FNF:2
FNH:2
DA:17,1060
LF:1
LH:1
end_of_record
TN:
SF:/home/tobias/taller2/appServer/DrTinder/source/Servidor/LikesDatabaseManager.cpp
FN:4,_ZN20LikesDatabaseManagerC2EPN7rocksdb2DBE
FN:8,_ZN20LikesDatabaseManager7matchesESsSs
FN:13,_Z41__static_initialization_and_destruction_0ii
FN:13,_GLOBAL__sub_I__ZN20LikesDatabaseManagerC2EPN7rocksdb2DBE
FNDA:190,_ZN20LikesDatabaseManagerC2EPN7rocksdb2DBE
FNDA:6,_GLOBAL__sub_I__ZN20LikesDatabaseManagerC2EPN7rocksdb2DBE
FNDA:3,_ZN20LikesDatabaseManager7matchesESsSs
FNDA:6,_Z41__static_initialization_and_destruction_0ii
FNF:4
FNH:4
DA:4,190
DA:6,190
DA:8,3
DA:9,3
DA:10,3
DA:11,3
DA:12,3
DA:13,18
LF:8
LH:8
end_of_record
TN:
SF:/home/tobias/taller2/appServer/DrTinder/source/Servidor/LikesDatabaseManager.h
FN:7,_ZN20LikesDatabaseManagerD2Ev
FNDA:1,_ZN20LikesDatabaseManagerD2Ev
FNF:1
FNH:1
DA:7,1
LF:1
LH:1
end_of_record
TN:
SF:/home/tobias/taller2/appServer/DrTinder/source/Servidor/MessageHandler.cpp
FN:7,_ZN14MessageHandlerC2EP19_server_databases_t
FN:15,_ZN14MessageHandler7setUserESs
FN:22,_ZN14MessageHandler13setSharedLinkESs
FN:32,_ZN14MessageHandler9isUserSetEv
FN:36,_ZN14MessageHandlerD2Ev
FN:43,_ZN14MessageHandler17updateUsersWithSSEv
FN:70,_ZN14MessageHandler5getIdEv
FN:76,_ZN14MessageHandler10setUsersDBEP15DatabaseManager
FN:80,_ZN14MessageHandler8getUsersERSs
FN:117,_ZN14MessageHandler12authenticateESsSs
FN:131,_ZN14MessageHandler15createInterestsEP9Interests
FN:156,_ZN14MessageHandler10createUserESsSs
FN:204,_ZN14MessageHandler10updateUserESs
FN:240,_ZN14MessageHandler10deleteUserEv
FN:258,_ZN14MessageHandler16getInterestPhotoERSsSs
FN:262,_ZN14MessageHandler7getChatESsRSs
FN:266,_ZN14MessageHandler8getPhotoESsRSs
FN:281,_ZN14MessageHandler9postPhotoESs
FN:291,_ZN14MessageHandler13validateTokenESs
FN:309,_ZN14MessageHandler18getAllInteractionsERSs
FN:324,_ZN14MessageHandler10getMatchesERSs
FN:339,_ZN14MessageHandler8getTokenEv
FN:364,_ZN14MessageHandler15addLocalizationESs
FN:412,_ZN14MessageHandler7getUserESsRSs
FN:444,_ZN14MessageHandler5matchERSsS0_
FN:458,_Z41__static_initialization_and_destruction_0ii
FN:458,_GLOBAL__sub_I__ZN14MessageHandlerC2EP19_server_databases_t
FNDA:26,_ZN14MessageHandler5getIdEv
FNDA:171,_ZN14MessageHandlerD2Ev
FNDA:11,_ZN14MessageHandler10createUserESsSs
FNDA:171,_ZN14MessageHandler13setSharedLinkESs
FNDA:0,_ZN14MessageHandler10getMatchesERSs
FNDA:5,_ZN14MessageHandler17updateUsersWithSSEv
FNDA:2,_ZN14MessageHandler8getUsersERSs
FNDA:3,_ZN14MessageHandler10updateUserESs
FNDA:2,_Z41__static_initialization_and_destruction_0ii
FNDA:0,_ZN14MessageHandler7getChatESsRSs
FNDA:2,_ZN14MessageHandler9postPhotoESs
FNDA:2,_ZN14MessageHandler18getAllInteractionsERSs
FNDA:12,_ZN14MessageHandler12authenticateESsSs
FNDA:9,_ZN14MessageHandler10deleteUserEv
FNDA:189,_ZN14MessageHandler5matchERSsS0_
FNDA:2,_ZN14MessageHandler8getPhotoESsRSs
FNDA:0,_ZN14MessageHandler9isUserSetEv
FNDA:2,_ZN14MessageHandler16getInterestPhotoERSsSs
FNDA:0,_ZN14MessageHandler10setUsersDBEP15DatabaseManager
FNDA:41,_ZN14MessageHandler7setUserESs
FNDA:15,_ZN14MessageHandler8getTokenEv
FNDA:11,_ZN14MessageHandler15createInterestsEP9Interests
FNDA:10,_ZN14MessageHandler15addLocalizationESs
FNDA:8,_ZN14MessageHandler7getUserESsRSs
FNDA:2,_GLOBAL__sub_I__ZN14MessageHandlerC2EP19_server_databases_t
FNDA:27,_ZN14MessageHandler13validateTokenESs
FNDA:171,_ZN14MessageHandlerC2EP19_server_databases_t
FNF:27
FNH:23
DA:7,171
DA:8,342
DA:9,513
DA:10,171
DA:11,171
DA:12,171
DA:13,171
DA:15,41
DA:17,41
DA:18,41
DA:19,41
DA:20,41
DA:22,171
DA:23,171
DA:24,171
DA:27,0
DA:28,0
DA:30,171
DA:32,0
DA:33,0
DA:36,341
DA:37,171
DA:38,171
DA:40,170
DA:41,170
DA:43,5
DA:44,5
DA:45,5
DA:46,10
DA:47,10
DA:48,10
DA:50,10
DA:51,5
DA:52,202
DA:53,394
DA:54,197
DA:55,197
DA:56,197
DA:57,42
DA:58,42
DA:60,197
DA:62,207
DA:63,197
DA:64,197
DA:65,197
DA:66,5
DA:68,5
DA:70,26
DA:71,26
DA:72,26
DA:73,26
DA:74,0
DA:76,0
DA:77,0
DA:78,0
DA:80,2
DA:81,2
DA:82,2
DA:83,4
DA:84,4
DA:85,4
DA:87,4
DA:89,4
DA:91,2
DA:92,0
DA:93,0
DA:96,4
DA:97,2
DA:99,4
DA:100,2
DA:102,4
DA:104,4
DA:106,2
DA:108,85
DA:109,81
DA:110,81
DA:111,81
DA:114,4
DA:117,12
DA:118,12
DA:119,12
DA:120,12
DA:121,12
DA:122,2
DA:123,2
DA:124,2
DA:125,2
DA:128,10
DA:131,11
DA:132,11
DA:133,11
DA:134,28
DA:135,17
DA:136,17
DA:137,17
DA:138,36
DA:139,19
DA:140,19
DA:141,38
DA:142,38
DA:143,19
DA:144,19
DA:145,19
DA:146,19
DA:147,19
DA:148,19
DA:149,38
DA:150,38
DA:151,19
DA:152,19
DA:153,28
DA:155,11
DA:156,11
DA:157,11
DA:158,11
DA:160,11
DA:161,3
DA:162,3
DA:165,16
DA:166,16
DA:167,16
DA:168,16
DA:169,16
DA:170,8
DA:171,0
DA:172,0
DA:174,8
DA:175,16
DA:176,16
DA:177,8
DA:178,8
DA:180,16
DA:181,8
DA:182,8
DA:184,8
DA:185,16
DA:186,8
DA:187,16
DA:188,8
DA:190,8
DA:192,8
DA:193,8
DA:194,8
DA:196,8
DA:197,16
DA:199,0
DA:200,0
DA:201,11
DA:204,3
DA:205,3
DA:206,3
DA:207,6
DA:208,6
DA:209,6
DA:210,6
DA:212,3
DA:213,0
DA:214,0
DA:217,3
DA:218,3
DA:221,3
DA:223,3
DA:224,1
DA:225,1
DA:227,2
DA:228,4
DA:229,4
DA:230,2
DA:231,2
DA:232,2
DA:233,2
DA:235,2
DA:237,5
DA:240,9
DA:241,18
DA:242,18
DA:244,9
DA:245,9
DA:246,9
DA:247,9
DA:248,9
DA:249,6
DA:250,9
DA:252,9
DA:253,9
DA:255,9
DA:258,2
DA:259,2
DA:262,0
DA:263,0
DA:266,2
DA:267,4
DA:268,2
DA:269,2
DA:271,2
DA:273,2
DA:274,0
DA:275,0
DA:278,4
DA:281,2
DA:282,2
DA:283,2
DA:284,2
DA:286,0
DA:287,0
DA:291,27
DA:292,27
DA:293,27
DA:294,19
DA:295,19
DA:296,17
DA:297,17
DA:298,17
DA:300,2
DA:301,2
DA:303,8
DA:304,8
DA:309,2
DA:310,2
DA:311,2
DA:312,193
DA:313,378
DA:315,189
DA:316,189
DA:317,0
DA:319,189
DA:320,189
DA:321,2
DA:322,2
DA:324,0
DA:325,0
DA:326,0
DA:327,0
DA:328,0
DA:330,0
DA:331,0
DA:332,0
DA:334,0
DA:335,0
DA:336,0
DA:337,0
DA:339,15
DA:340,30
DA:341,15
DA:342,15
DA:344,1
DA:349,15
DA:350,8
DA:353,15
DA:356,15
DA:357,15
DA:359,15
DA:360,30
DA:364,10
DA:365,10
DA:366,10
DA:367,10
DA:368,20
DA:369,10
DA:370,0
DA:371,0
DA:374,20
DA:375,20
DA:376,20
DA:377,20
DA:379,10
DA:380,0
DA:381,0
DA:384,10
DA:385,10
DA:388,10
DA:390,20
DA:391,10
DA:393,10
DA:394,0
DA:395,0
DA:398,20
DA:399,10
DA:400,10
DA:401,10
DA:402,10
DA:403,10
DA:404,20
DA:405,10
DA:406,10
DA:408,10
DA:409,20
DA:412,8
DA:414,8
DA:415,8
DA:416,8
DA:418,8
DA:419,2
DA:422,8
DA:423,2
DA:424,2
DA:428,6
DA:429,6
DA:430,6
DA:431,6
DA:432,12
DA:433,12
DA:434,6
DA:435,6
DA:436,6
DA:437,12
DA:439,0
DA:441,6
DA:444,189
DA:445,189
DA:446,189
DA:447,378
DA:449,189
DA:450,189
DA:451,189
DA:453,0
DA:454,0
DA:456,0
DA:457,189
DA:458,6
LF:320
LH:275
end_of_record
TN:
SF:/home/tobias/taller2/appServer/DrTinder/source/Servidor/MessageHandler.h
FN:30,_ZN21ExistentUserExceptionC2ERKS_
FN:30,_ZN21ExistentUserExceptionD0Ev
FN:30,_ZN21ExistentUserExceptionC2Ev
FN:30,_ZN21ExistentUserExceptionD2Ev
FNDA:6,_ZN21ExistentUserExceptionD2Ev
FNDA:3,_ZN21ExistentUserExceptionC2Ev
FNDA:0,_ZN21ExistentUserExceptionD0Ev
FNDA:3,_ZN21ExistentUserExceptionC2ERKS_
FNF:4
FNH:3
DA:30,12
LF:1
LH:1
end_of_record
TN:
SF:/home/tobias/taller2/appServer/DrTinder/source/Servidor/Parsers/CsvParser.cpp
FN:12,_ZN9CsvParserC2Ev
FN:16,_ZN9CsvParser9parseLineEPSs
FN:44,_ZN9CsvParser13splitInterestESsRSsS0_
FN:60,_ZN9CsvParser13makeInterestsESsR9Interests
FN:84,_ZN9CsvParser8makeUserESsR4User
FN:133,_ZN9CsvParser14makeSignupUserESsR4User
FN:165,_ZN9CsvParser11makePutUserESsSsR4User
FN:208,_ZN9CsvParser13userToCsvFullEP4User
FN:231,_ZN9CsvParser18userToCsvForClientEP4Userb
FN:260,_ZN9CsvParser13interestToCsvEP9Interests
FN:278,_ZN9CsvParser8removeIdERSs
FN:292,_ZN9CsvParserD2Ev
FN:292,_ZN9CsvParserD0Ev
FN:293,_GLOBAL__sub_I__ZN9CsvParserC2Ev
FN:293,_Z41__static_initialization_and_destruction_0ii
FNDA:6,_Z41__static_initialization_and_destruction_0ii
FNDA:99,_ZN9CsvParser13interestToCsvEP9Interests
FNDA:90,_ZN9CsvParser13userToCsvFullEP4User
FNDA:6,_ZN9CsvParser18userToCsvForClientEP4Userb
FNDA:20,_ZN9CsvParser14makeSignupUserESsR4User
FNDA:95,_ZN9CsvParser13splitInterestESsRSsS0_
FNDA:17,_ZN9CsvParser11makePutUserESsSsR4User
FNDA:270,_ZN9CsvParserC2Ev
FNDA:0,_ZN9CsvParserD0Ev
FNDA:123,_ZN9CsvParser9parseLineEPSs
FNDA:3,_ZN9CsvParser8removeIdERSs
FNDA:6,_GLOBAL__sub_I__ZN9CsvParserC2Ev
FNDA:37,_ZN9CsvParser8makeUserESsR4User
FNDA:51,_ZN9CsvParser13makeInterestsESsR9Interests
FNDA:270,_ZN9CsvParserD2Ev
FNF:15
FNH:14
DA:12,270
DA:14,270
DA:16,123
DA:17,123
DA:18,246
DA:20,246
DA:22,123
DA:23,0
DA:26,1178
DA:28,932
DA:29,932
DA:30,1867
DA:31,3
DA:32,3
DA:33,3
DA:34,3
DA:36,932
DA:38,932
DA:40,123
DA:44,95
DA:45,95
DA:46,190
DA:47,95
DA:48,380
DA:49,190
DA:51,190
DA:52,95
DA:53,95
DA:55,190
DA:57,190
DA:58,95
DA:60,51
DA:61,102
DA:63,51
DA:64,0
DA:67,102
DA:69,102
DA:70,197
DA:71,95
DA:73,95
DA:74,44
DA:77,95
DA:79,95
DA:80,51
DA:82,51
DA:84,37
DA:85,37
DA:86,74
DA:87,37
DA:88,37
DA:90,37
DA:91,6
DA:94,31
DA:95,25
DA:96,25
DA:97,0
DA:99,25
DA:100,25
DA:101,25
DA:103,6
DA:105,62
DA:106,62
DA:107,62
DA:110,31
DA:111,9
DA:114,44
DA:115,44
DA:116,44
DA:117,44
DA:118,22
DA:119,22
DA:121,22
DA:122,22
DA:123,22
DA:124,22
DA:126,22
DA:127,22
DA:129,59
DA:133,20
DA:134,20
DA:136,20
DA:137,0
DA:140,40
DA:141,40
DA:142,40
DA:143,40
DA:144,40
DA:145,40
DA:147,20
DA:148,3
DA:151,17
DA:154,17
DA:157,17
DA:158,17
DA:160,17
DA:161,17
DA:162,37
DA:165,17
DA:166,17
DA:167,34
DA:168,34
DA:170,17
DA:171,11
DA:174,12
DA:175,12
DA:176,12
DA:177,12
DA:178,12
DA:181,12
DA:182,12
DA:185,12
DA:186,6
DA:187,0
DA:189,6
DA:190,0
DA:192,12
DA:193,6
DA:195,6
DA:196,6
DA:197,6
DA:199,6
DA:200,6
DA:201,6
DA:202,6
DA:203,6
DA:205,23
DA:208,90
DA:209,990
DA:210,90
DA:212,90
DA:213,90
DA:214,90
DA:215,90
DA:216,90
DA:217,90
DA:218,90
DA:219,90
DA:220,90
DA:221,90
DA:223,990
DA:224,900
DA:226,90
DA:228,990
DA:231,6
DA:232,6
DA:234,6
DA:235,3
DA:238,57
DA:239,6
DA:241,6
DA:242,6
DA:243,6
DA:244,6
DA:245,6
DA:246,6
DA:247,6
DA:249,6
DA:250,3
DA:252,51
DA:253,45
DA:255,6
DA:257,57
DA:260,99
DA:261,99
DA:262,198
DA:263,99
DA:265,294
DA:266,195
DA:267,414
DA:268,219
DA:269,219
DA:270,219
DA:271,195
DA:273,99
DA:275,198
DA:278,3
DA:279,3
DA:280,6
DA:281,3
DA:283,3
DA:284,24
DA:285,21
DA:287,6
DA:290,3
DA:292,270
DA:293,288
LF:186
LH:180
end_of_record
TN:
SF:/home/tobias/taller2/appServer/DrTinder/source/Servidor/Parsers/JsonParser.cpp
FN:12,_ZN10JsonParserC2Ev
FN:16,_ZN10JsonParser7parsingESs
FN:20,_ZN10JsonParser13makeInterestsEN4Json5ValueER9Interests
FN:38,_ZN10JsonParser8makeUserEN4Json5ValueER4User
FN:71,_ZN10JsonParser15interestsToJsonEP9Interests
FN:90,_ZN10JsonParser10userToJsonEP4Userb
FN:110,_ZN10JsonParser11photoToJsonEPSs
FN:116,_ZN10JsonParser8getValueESs
FN:120,_ZN10JsonParser11getAsStringEN4Json5ValueE
FN:123,_ZN10JsonParserD2Ev
FN:123,_ZN10JsonParserD0Ev
FN:125,_GLOBAL__sub_I__ZN10JsonParserC2Ev
FN:125,_Z41__static_initialization_and_destruction_0ii
FNDA:1319,_ZN10JsonParserC2Ev
FNDA:136,_ZN10JsonParser8getValueESs
FNDA:10,_ZN10JsonParser11photoToJsonEPSs
FNDA:36,_ZN10JsonParser10userToJsonEP4Userb
FNDA:6,_Z41__static_initialization_and_destruction_0ii
FNDA:562,_ZN10JsonParser13makeInterestsEN4Json5ValueER9Interests
FNDA:6,_GLOBAL__sub_I__ZN10JsonParserC2Ev
FNDA:562,_ZN10JsonParser8makeUserEN4Json5ValueER4User
FNDA:36,_ZN10JsonParser15interestsToJsonEP9Interests
FNDA:76,_ZN10JsonParser11getAsStringEN4Json5ValueE
FNDA:87,_ZN10JsonParser7parsingESs
FNDA:0,_ZN10JsonParserD0Ev
FNDA:1319,_ZN10JsonParserD2Ev
FNF:13
FNH:12
DA:12,1319
DA:15,1319
DA:16,87
DA:17,87
DA:20,562
DA:21,562
DA:22,1124
DA:23,562
DA:24,0
DA:26,562
DA:29,562
DA:30,2152
DA:31,1590
DA:32,1590
DA:33,2152
DA:36,562
DA:38,562
DA:39,562
DA:40,1124
DA:41,1124
DA:42,562
DA:43,25
DA:45,537
DA:49,1124
DA:50,562
DA:51,562
DA:53,562
DA:55,562
DA:57,562
DA:59,562
DA:61,562
DA:63,559
DA:66,562
DA:67,1124
DA:69,562
DA:71,36
DA:72,36
DA:73,72
DA:74,36
DA:76,86
DA:77,50
DA:78,106
DA:79,56
DA:80,112
DA:81,56
DA:82,56
DA:83,56
DA:84,56
DA:85,50
DA:87,72
DA:90,36
DA:91,36
DA:92,72
DA:94,36
DA:95,16
DA:97,36
DA:98,36
DA:99,36
DA:100,36
DA:101,36
DA:102,36
DA:103,36
DA:104,36
DA:105,36
DA:106,36
DA:107,72
DA:110,10
DA:111,10
DA:112,10
DA:113,10
DA:116,136
DA:117,136
DA:120,76
DA:121,76
DA:123,1319
DA:125,1337
LF:76
LH:75
end_of_record
TN:
SF:/home/tobias/taller2/appServer/DrTinder/source/Servidor/Parsers/UserParser.cpp
FN:10,_ZN10UserParserC2Ev
FN:14,_ZN10UserParser13JsonToCsvFullEN4Json5ValueERSsSs
FN:25,_ZN10UserParser13CsvToJsonFullESsRN4Json5ValueEb
FN:34,_ZN10UserParser10JsonToListESs
FN:50,_ZN10UserParser9ListToCsvESt4listIP4UserSaIS2_EE
FN:59,_ZN10UserParserD0Ev
FN:59,_ZN10UserParserD2Ev
FN:61,_Z41__static_initialization_and_destruction_0ii
FN:61,_GLOBAL__sub_I__ZN10UserParserC2Ev
FNDA:39,_ZN10UserParser13JsonToCsvFullEN4Json5ValueERSsSs
FNDA:16,_ZN10UserParser10JsonToListESs
FNDA:56,_ZN10UserParserC2Ev
FNDA:6,_Z41__static_initialization_and_destruction_0ii
FNDA:12,_ZN10UserParser13CsvToJsonFullESsRN4Json5ValueEb
FNDA:0,_ZN10UserParserD0Ev
FNDA:56,_ZN10UserParserD2Ev
FNDA:6,_GLOBAL__sub_I__ZN10UserParserC2Ev
FNDA:7,_ZN10UserParser9ListToCsvESt4listIP4UserSaIS2_EE
FNF:9
FNH:8
DA:10,56
DA:13,56
DA:14,39
DA:15,39
DA:16,78
DA:17,78
DA:18,39
DA:20,39
DA:22,78
DA:23,39
DA:25,12
DA:26,12
DA:27,24
DA:28,24
DA:29,12
DA:31,24
DA:32,12
DA:34,16
DA:35,16
DA:36,16
DA:37,16
DA:38,32
DA:39,16
DA:40,536
DA:41,520
DA:42,1040
DA:43,520
DA:44,520
DA:45,520
DA:46,520
DA:47,32
DA:50,7
DA:51,7
DA:52,7
DA:53,7
DA:54,46
DA:55,39
DA:57,7
DA:59,56
DA:61,74
LF:40
LH:40
end_of_record
TN:
SF:/home/tobias/taller2/appServer/DrTinder/source/Servidor/RequestHandler.cpp
FN:6,_ZN14RequestHandlerC2EP12http_messageP13mg_connectionSs
FN:14,_ZN14RequestHandlerD2Ev
FN:18,_ZN14RequestHandler12sendHttpLineEi
FN:22,_ZN14RequestHandler13sendHttpReplyESsSsi
FN:40,_ZN14RequestHandler13validateTokenEv
FN:54,_ZN14RequestHandler16rejectConnectionEi
FN:60,_ZN14RequestHandler18parseAuthorizationERSsS0_
FN:79,_ZN14RequestHandler5loginEv
FN:83,_ZN14RequestHandler14listenUserPostEv
FN:111,_ZN14RequestHandler13listenUserGetEv
FN:126,_ZN14RequestHandler17listenUserRequestEv
FN:145,_ZN14RequestHandler15listenUsersPostEv
FN:172,_ZN14RequestHandler14listenUsersGetEv
FN:179,_ZN14RequestHandler14listenUsersPutEv
FN:193,_ZN14RequestHandler17listenUsersDeleteEv
FN:200,_ZN14RequestHandler18listenUsersRequestEv
FN:221,_ZN14RequestHandler21listenInterestRequestEv
FN:248,_ZN14RequestHandler17listenChatRequestEv
FN:268,_ZN14RequestHandler14listenPhotoGetEv
FN:285,_ZN14RequestHandler15listenPhotoPostEv
FN:293,_ZN14RequestHandler18listenPhotoRequestEv
FN:304,_GLOBAL__sub_I__ZN14RequestHandlerC2EP12http_messageP13mg_connectionSs
FN:304,_Z41__static_initialization_and_destruction_0ii
FNDA:10,_ZN14RequestHandler14listenUserPostEv
FNDA:0,_ZN14RequestHandler21listenInterestRequestEv
FNDA:2,_GLOBAL__sub_I__ZN14RequestHandlerC2EP12http_messageP13mg_connectionSs
FNDA:2,_ZN14RequestHandler14listenUsersPutEv
FNDA:45,_ZN14RequestHandler13sendHttpReplyESsSsi
FNDA:26,_ZN14RequestHandler13validateTokenEv
FNDA:2,_Z41__static_initialization_and_destruction_0ii
FNDA:26,_ZN14RequestHandler5loginEv
FNDA:1,_ZN14RequestHandler14listenUsersGetEv
FNDA:14,_ZN14RequestHandler12sendHttpLineEi
FNDA:18,_ZN14RequestHandler18parseAuthorizationERSsS0_
FNDA:6,_ZN14RequestHandler17listenUsersDeleteEv
FNDA:4,_ZN14RequestHandler16rejectConnectionEi
FNDA:2,_ZN14RequestHandler18listenPhotoRequestEv
FNDA:15,_ZN14RequestHandler17listenUserRequestEv
FNDA:1,_ZN14RequestHandler14listenPhotoGetEv
FNDA:0,_ZN14RequestHandler17listenChatRequestEv
FNDA:19,_ZN14RequestHandler18listenUsersRequestEv
FNDA:1,_ZN14RequestHandler15listenPhotoPostEv
FNDA:162,_ZN14RequestHandlerD2Ev
FNDA:8,_ZN14RequestHandler15listenUsersPostEv
FNDA:162,_ZN14RequestHandlerC2EP12http_messageP13mg_connectionSs
FNDA:5,_ZN14RequestHandler13listenUserGetEv
FNF:23
FNH:21
DA:6,162
DA:7,162
DA:8,162
DA:9,162
DA:10,162
DA:11,162
DA:14,162
DA:15,162
DA:16,161
DA:18,14
DA:19,14
DA:20,14
DA:22,45
DA:23,45
DA:29,45
DA:30,45
DA:31,45
DA:32,45
DA:33,5
DA:35,40
DA:38,45
DA:40,26
DA:42,26
DA:44,26
DA:45,26
DA:46,26
DA:47,10
DA:48,10
DA:50,16
DA:51,16
DA:54,4
DA:55,4
DA:56,4
DA:57,4
DA:58,4
DA:60,18
DA:63,18
DA:64,18
DA:65,18
DA:68,18
DA:69,0
DA:70,0
DA:71,0
DA:73,18
DA:74,18
DA:75,18
DA:76,18
DA:79,26
DA:80,26
DA:83,10
DA:84,10
DA:85,19
DA:86,10
DA:87,0
DA:89,10
DA:90,1
DA:91,1
DA:93,9
DA:94,9
DA:96,9
DA:98,9
DA:99,0
DA:100,0
DA:102,9
DA:103,9
DA:104,0
DA:106,9
DA:107,9
DA:108,9
DA:111,5
DA:112,5
DA:114,5
DA:116,5
DA:117,0
DA:118,5
DA:120,5
DA:121,5
DA:123,5
DA:126,15
DA:127,15
DA:128,15
DA:129,10
DA:130,10
DA:133,5
DA:134,0
DA:137,5
DA:138,5
DA:139,5
DA:142,0
DA:145,8
DA:146,8
DA:148,16
DA:149,8
DA:150,0
DA:152,8
DA:153,8
DA:154,0
DA:155,0
DA:158,8
DA:159,11
DA:160,5
DA:161,0
DA:162,0
DA:164,5
DA:167,3
DA:168,3
DA:169,8
DA:172,1
DA:173,1
DA:174,1
DA:175,1
DA:176,1
DA:177,1
DA:179,2
DA:180,2
DA:182,2
DA:183,2
DA:184,0
DA:185,0
DA:186,2
DA:188,2
DA:189,2
DA:190,2
DA:193,6
DA:194,6
DA:195,6
DA:196,6
DA:197,6
DA:198,6
DA:200,19
DA:201,19
DA:202,19
DA:203,8
DA:205,19
DA:206,29
DA:209,9
DA:210,1
DA:211,8
DA:212,2
DA:213,6
DA:214,6
DA:216,0
DA:221,0
DA:222,0
DA:223,0
DA:224,0
DA:227,0
DA:228,0
DA:231,0
DA:233,0
DA:234,0
DA:235,0
DA:236,0
DA:238,0
DA:239,0
DA:240,0
DA:241,0
DA:243,0
DA:245,0
DA:248,0
DA:249,0
DA:250,0
DA:251,0
DA:253,0
DA:256,0
DA:257,0
DA:258,0
DA:260,0
DA:261,0
DA:263,0
DA:265,0
DA:268,1
DA:269,1
DA:271,1
DA:272,1
DA:273,0
DA:274,1
DA:276,1
DA:277,1
DA:278,0
DA:280,1
DA:281,1
DA:285,1
DA:286,1
DA:287,1
DA:288,1
DA:289,1
DA:290,1
DA:291,1
DA:293,2
DA:294,2
DA:295,4
DA:297,2
DA:298,1
DA:299,1
DA:300,1
DA:302,0
DA:304,6
LF:198
LH:148
end_of_record
TN:
SF:/home/tobias/taller2/appServer/DrTinder/source/Servidor/Server.cpp
FN:7,_ZN6ServerC2Ev
FN:17,_ZN6ServerC2ESsSs
FN:26,_ZN6ServerD0Ev
FN:26,_ZN6ServerD2Ev
FN:33,_ZN6Server12updateServerEv
FN:39,_ZN6Server3runEv
FN:46,_ZN6Server11handleEventEP13mg_connectioniPv
FN:73,_ZN6Server10setUsersDBEPN7rocksdb2DBE
FN:77,_ZN6Server9setChatDBEPN7rocksdb2DBE
FN:81,_ZN6Server10setLikesDBEPN7rocksdb2DBE
FN:83,_Z41__static_initialization_and_destruction_0ii
FN:83,_GLOBAL__sub_I__ZN6Server12linkToSharedE
FNDA:0,_ZN6ServerD0Ev
FNDA:1,_ZN6Server10setLikesDBEPN7rocksdb2DBE
FNDA:1,_ZN6Server12updateServerEv
FNDA:1,_ZN6Server9setChatDBEPN7rocksdb2DBE
FNDA:1,_ZN6Server10setUsersDBEPN7rocksdb2DBE
FNDA:274,_ZN6Server3runEv
FNDA:2,_GLOBAL__sub_I__ZN6Server12linkToSharedE
FNDA:162,_ZN6Server11handleEventEP13mg_connectioniPv
FNDA:1,_ZN6ServerD2Ev
FNDA:1,_ZN6ServerC2ESsSs
FNDA:2,_Z41__static_initialization_and_destruction_0ii
FNDA:0,_ZN6ServerC2Ev
FNF:12
FNH:10
DA:5,2
DA:7,0
DA:8,0
DA:9,0
DA:10,0
DA:11,0
DA:12,0
DA:13,0
DA:14,0
DA:15,0
DA:17,1
DA:18,1
DA:19,1
DA:20,1
DA:21,1
DA:22,1
DA:23,1
DA:24,1
DA:26,1
DA:27,1
DA:28,1
DA:29,1
DA:30,1
DA:31,1
DA:33,1
DA:34,1
DA:35,1
DA:36,1
DA:37,1
DA:39,274
DA:40,274
DA:41,0
DA:43,274
DA:44,274
DA:46,162
DA:47,162
DA:49,162
DA:51,162
DA:53,37
DA:54,37
DA:55,19
DA:56,18
DA:57,0
DA:58,18
DA:59,0
DA:60,18
DA:61,2
DA:62,16
DA:63,15
DA:65,1
DA:67,37
DA:69,125
DA:70,162
DA:71,161
DA:73,1
DA:74,1
DA:75,1
DA:77,1
DA:78,1
DA:79,1
DA:81,1
DA:82,1
DA:83,7
LF:63
LH:51
end_of_record
TN:
SF:/home/tobias/taller2/appServer/DrTinder/source/Servidor/ServerUtils.cpp
FN:16,_Z11intToStringiRSs
FN:22,_Z8is_equalPK6mg_strSs
FN:26,_Z6equalsSsSs
FN:30,_Z9isIntegerRSs
FN:40,_Z7isFloatSs
FN:48,_Z12setCnfgValueP10JsonParserSsRSs
FN:56,_Z14readConfigFileRSsS_S_
FN:73,_Z12makeUsernameRSs
FN:83,_Z9configureiPPcRSsS1_
FN:140,_Z41__static_initialization_and_destruction_0ii
FN:140,_GLOBAL__sub_I__Z11intToStringiRSs
FNDA:36,_Z12setCnfgValueP10JsonParserSsRSs
FNDA:200,_Z8is_equalPK6mg_strSs
FNDA:6,_Z41__static_initialization_and_destruction_0ii
FNDA:12,_Z14readConfigFileRSsS_S_
FNDA:78,_Z6equalsSsSs
FNDA:103,_Z9isIntegerRSs
FNDA:104,_Z7isFloatSs
FNDA:3,_Z11intToStringiRSs
FNDA:12,_Z9configureiPPcRSsS1_
FNDA:6,_GLOBAL__sub_I__Z11intToStringiRSs
FNDA:422,_Z12makeUsernameRSs
FNF:11
FNH:11
DA:16,3
DA:17,3
DA:18,3
DA:19,3
DA:20,3
DA:22,200
DA:23,200
DA:26,78
DA:27,78
DA:30,103
DA:32,103
DA:35,94
DA:37,94
DA:40,104
DA:41,104
DA:43,104
DA:45,104
DA:48,36
DA:49,36
DA:50,36
DA:51,36
DA:52,36
DA:53,36
DA:54,36
DA:56,12
DA:57,12
DA:58,12
DA:59,12
DA:60,24
DA:61,84
DA:62,60
DA:64,12
DA:65,12
DA:66,12
DA:67,12
DA:69,24
DA:70,12
DA:71,12
DA:73,422
DA:74,422
DA:75,844
DA:78,422
DA:81,422
DA:83,12
DA:84,24
DA:87,12
DA:90,27
DA:91,15
DA:92,15
DA:93,3
DA:94,12
DA:95,3
DA:96,9
DA:97,3
DA:98,6
DA:99,0
DA:101,15
DA:104,12
DA:105,9
DA:108,12
DA:109,3
DA:110,3
DA:112,0
DA:117,24
DA:118,12
DA:119,12
DA:121,12
DA:123,12
DA:124,0
DA:125,0
DA:127,12
DA:130,12
DA:131,0
DA:132,0
DA:134,12
DA:137,12
DA:138,24
DA:140,30
LF:78
LH:72
end_of_record
TN:
SF:/home/tobias/taller2/appServer/DrTinder/source/Servidor/SharedServerClient.cpp
FN:7,_ZN18SharedServerClientC2ESs
FN:14,_ZN18SharedServerClientD2Ev
FN:19,_ZN18SharedServerClient7formUrlEPSsm
FN:27,_ZN18SharedServerClient5validEPN10RestClient8ResponseE
FN:40,_ZN18SharedServerClient7setBodyEPSsPN10RestClient8ResponseE
FN:51,_ZN18SharedServerClient8getUsersEPSs
FN:59,_ZN18SharedServerClient7getUserESsPSs
FN:67,_ZN18SharedServerClient9postUsersERSsPSs
FN:75,_ZN18SharedServerClient10changeUserESsSs
FN:82,_ZN18SharedServerClient15changeUserPhotoESsSs
FN:91,_ZN18SharedServerClient10deleteUserESsPSs
FN:99,_ZN18SharedServerClient17getUsersInterestsEPSs
FN:106,_ZN18SharedServerClient18postUsersInterestsEPSs
FN:113,_ZN18SharedServerClient12getUserPhotoESsRSs
FN:124,_ZN18SharedServerClient16getInterestPhotoESsRSs
FN:129,_GLOBAL__sub_I__ZN18SharedServerClientC2ESs
FN:129,_Z41__static_initialization_and_destruction_0ii
FNDA:208,_ZN18SharedServerClientD2Ev
FNDA:6,_Z41__static_initialization_and_destruction_0ii
FNDA:6,_ZN18SharedServerClient16getInterestPhotoESsRSs
FNDA:164,_ZN18SharedServerClient7formUrlEPSsm
FNDA:208,_ZN18SharedServerClientC2ESs
FNDA:39,_ZN18SharedServerClient7getUserESsPSs
FNDA:19,_ZN18SharedServerClient10changeUserESsSs
FNDA:21,_ZN18SharedServerClient10deleteUserESsPSs
FNDA:164,_ZN18SharedServerClient5validEPN10RestClient8ResponseE
FNDA:8,_ZN18SharedServerClient12getUserPhotoESsRSs
FNDA:20,_ZN18SharedServerClient9postUsersERSsPSs
FNDA:33,_ZN18SharedServerClient18postUsersInterestsEPSs
FNDA:16,_ZN18SharedServerClient8getUsersEPSs
FNDA:7,_ZN18SharedServerClient15changeUserPhotoESsSs
FNDA:3,_ZN18SharedServerClient17getUsersInterestsEPSs
FNDA:6,_GLOBAL__sub_I__ZN18SharedServerClientC2ESs
FNDA:105,_ZN18SharedServerClient7setBodyEPSsPN10RestClient8ResponseE
FNF:17
FNH:17
DA:7,208
DA:8,208
DA:9,208
DA:10,207
DA:11,208
DA:12,208
DA:14,208
DA:15,208
DA:16,208
DA:17,208
DA:19,164
DA:20,164
DA:21,433
DA:22,269
DA:24,164
DA:27,164
DA:28,164
DA:29,40
DA:30,40
DA:32,124
DA:33,0
DA:34,0
DA:36,124
DA:37,124
DA:40,105
DA:41,105
DA:42,105
DA:43,105
DA:44,98
DA:46,7
DA:51,16
DA:52,32
DA:53,32
DA:54,32
DA:55,48
DA:59,39
DA:60,117
DA:61,78
DA:62,78
DA:63,156
DA:67,20
DA:68,40
DA:69,40
DA:70,40
DA:71,60
DA:75,19
DA:76,57
DA:77,38
DA:78,38
DA:79,76
DA:82,7
DA:83,28
DA:84,14
DA:85,14
DA:86,14
DA:87,14
DA:88,35
DA:91,21
DA:92,63
DA:93,42
DA:94,42
DA:95,84
DA:99,3
DA:100,6
DA:101,6
DA:102,6
DA:103,9
DA:106,33
DA:107,66
DA:108,66
DA:109,66
DA:110,99
DA:113,8
DA:114,8
DA:115,8
DA:116,8
DA:117,8
DA:118,8
DA:119,8
DA:121,0
DA:124,6
DA:125,24
DA:126,12
DA:127,12
DA:128,30
DA:129,18
LF:86
LH:83
end_of_record
TN:
SF:/home/tobias/taller2/appServer/DrTinder/source/Servidor/Tokenizer.cpp
FN:12,_ZN9TokenizerC2EP15DatabaseManager
FN:18,_ZN9Tokenizer16timeStampExpiredESs
FN:45,_ZN9Tokenizer15getNowTimeStampEv
FN:62,_ZN9Tokenizer8newTokenESsSs
FN:89,_ZN9Tokenizer10hasExpiredESs
FN:98,_ZN9Tokenizer6removeESs
FN:102,_ZN9TokenizerD2Ev
FN:102,_ZN9TokenizerD0Ev
FN:104,_GLOBAL__sub_I__ZN9TokenizerC2EP15DatabaseManager
FN:104,_Z41__static_initialization_and_destruction_0ii
FNDA:194,_ZN9TokenizerD2Ev
FNDA:32,_ZN9Tokenizer8newTokenESsSs
FNDA:24,_ZN9Tokenizer6removeESs
FNDA:6,_GLOBAL__sub_I__ZN9TokenizerC2EP15DatabaseManager
FNDA:196,_ZN9TokenizerC2EP15DatabaseManager
FNDA:185,_ZN9TokenizerD0Ev
FNDA:33,_ZN9Tokenizer16timeStampExpiredESs
FNDA:44,_ZN9Tokenizer10hasExpiredESs
FNDA:6,_Z41__static_initialization_and_destruction_0ii
FNDA:32,_ZN9Tokenizer15getNowTimeStampEv
FNF:10
FNH:10
DA:12,196
DA:13,196
DA:15,196
DA:18,33
DA:19,33
DA:20,33
DA:22,66
DA:23,66
DA:24,264
DA:25,198
DA:26,198
DA:28,33
DA:29,0
DA:31,33
DA:32,33
DA:33,33
DA:34,33
DA:35,33
DA:36,33
DA:37,33
DA:39,33
DA:41,66
DA:45,32
DA:46,32
DA:47,32
DA:48,64
DA:49,32
DA:50,32
DA:51,32
DA:52,32
DA:53,32
DA:54,32
DA:56,32
DA:57,32
DA:58,32
DA:59,64
DA:62,32
DA:65,32
DA:67,64
DA:68,32
DA:69,32
DA:73,32
DA:74,32
DA:75,32
DA:78,544
DA:79,512
DA:82,32
DA:84,32
DA:85,64
DA:89,44
DA:90,44
DA:91,44
DA:92,33
DA:94,11
DA:98,24
DA:99,24
DA:100,24
DA:102,379
DA:104,397
LF:59
LH:58
end_of_record
TN:
SF:/home/tobias/taller2/appServer/DrTinder/source/Servidor/User.cpp
FN:10,_ZN4UserC2Ev
FN:15,_ZN4User12setInterestsE9Interests
FN:19,_ZN4User11addInterestESsSs
FN:23,_ZN4User14removeInterestESsSs
FN:27,_ZN4User5setIdEi
FN:31,_ZN4User6setAgeEi
FN:34,_ZN4User11setLocationEff
FN:39,_ZN4User7setMailESs
FN:43,_ZN4User8setAliasESs
FN:47,_ZN4User7setNameESs
FN:51,_ZN4User6setSexESs
FN:55,_ZN4User13setCommonDataESsSsSsSs
FN:62,_ZN4User14setDescriptionESs
FN:66,_ZN4User8setPhotoESs
FN:70,_ZN4User7getMailEv
FN:73,_ZN4User7getNameEv
FN:76,_ZN4User8getAliasEv
FN:79,_ZN4User14getDescriptionEv
FN:82,_ZN4User8getPhotoEv
FN:85,_ZN4User6getSexEv
FN:88,_ZN4User5getIDEv
FN:91,_ZN4User6getAgeEv
FN:94,_ZN4User12getInterestsEv
FN:97,_ZN4User4getXEv
FN:100,_ZN4User4getYEv
FN:104,_ZN4UserD2Ev
FN:104,_ZN4UserD0Ev
FNDA:702,_ZN4User7setNameESs
FNDA:638,_ZN4User5setIdEi
FNDA:790,_ZN4UserD2Ev
FNDA:625,_ZN4UserD0Ev
FNDA:138,_ZN4User8getAliasEv
FNDA:24,_ZN4User11addInterestESsSs
FNDA:702,_ZN4User6setSexESs
FNDA:125,_ZN4User14getDescriptionEv
FNDA:562,_ZN4User7setMailESs
FNDA:165,_ZN4User4getYEv
FNDA:697,_ZN4User12setInterestsE9Interests
FNDA:863,_ZN4User7getMailEv
FNDA:574,_ZN4User8setPhotoESs
FNDA:800,_ZN4UserC2Ev
FNDA:192,_ZN4User6getAgeEv
FNDA:0,_ZN4User14removeInterestESsSs
FNDA:759,_ZN4User11setLocationEff
FNDA:167,_ZN4User4getXEv
FNDA:136,_ZN4User7getNameEv
FNDA:57,_ZN4User13setCommonDataESsSsSsSs
FNDA:36,_ZN4User8getPhotoEv
FNDA:619,_ZN4User5getIDEv
FNDA:562,_ZN4User8setAliasESs
FNDA:346,_ZN4User6getSexEv
FNDA:90,_ZN4User14setDescriptionESs
FNDA:759,_ZN4User6setAgeEi
FNDA:392,_ZN4User12getInterestsEv
FNF:27
FNH:26
DA:10,800
DA:11,800
DA:12,800
DA:13,800
DA:15,697
DA:16,697
DA:17,697
DA:19,24
DA:20,24
DA:21,24
DA:23,0
DA:24,0
DA:25,0
DA:27,638
DA:28,638
DA:29,638
DA:31,759
DA:32,759
DA:33,759
DA:34,759
DA:35,759
DA:36,759
DA:37,759
DA:39,562
DA:40,562
DA:41,562
DA:43,562
DA:44,562
DA:45,562
DA:47,702
DA:48,702
DA:49,702
DA:51,702
DA:52,702
DA:53,702
DA:55,57
DA:56,57
DA:57,57
DA:58,57
DA:59,57
DA:60,57
DA:62,90
DA:63,90
DA:64,90
DA:66,574
DA:67,574
DA:68,574
DA:70,863
DA:71,863
DA:73,136
DA:74,136
DA:76,138
DA:77,138
DA:79,125
DA:80,125
DA:82,36
DA:83,36
DA:85,346
DA:86,346
DA:88,619
DA:89,619
DA:91,192
DA:92,192
DA:94,392
DA:95,392
DA:97,167
DA:98,167
DA:100,165
DA:101,165
DA:104,1415
DA:106,1415
LF:71
LH:68
end_of_record
TN:
SF:/home/tobias/taller2/appServer/DrTinder/source/Servidor/XMPPMessageHandler.cpp
FN:4,_ZN18XMPPMessageHandlerC2ESs
FN:8,_ZN18XMPPMessageHandlerD2Ev
FN:12,_ZN18XMPPMessageHandler12parseMessageERSs
FN:26,_ZN18XMPPMessageHandler7getTypeEv
FN:30,_ZN18XMPPMessageHandler11saveMessageEPN7rocksdb2DBEN5boost8optionalINS3_10posix_time5ptimeEEE
FN:39,_ZN18XMPPMessageHandler8saveLikeEPN7rocksdb2DBE
FN:44,_ZN18XMPPMessageHandler11saveDislikeEPN7rocksdb2DBE
FN:49,_ZN18XMPPMessageHandler11getReceiverEv
FN:53,_ZN18XMPPMessageHandler17formResendMessageEv
FN:60,_ZN18XMPPMessageHandler9parseLikeERN4Json5ValueE
FN:66,_ZN18XMPPMessageHandler9parseChatERN4Json5ValueE
FN:70,_Z41__static_initialization_and_destruction_0ii
FN:70,_GLOBAL__sub_I__ZN18XMPPMessageHandlerC2ESs
FNDA:0,_ZN18XMPPMessageHandler12parseMessageERSs
FNDA:0,_ZN18XMPPMessageHandler8saveLikeEPN7rocksdb2DBE
FNDA:0,_ZN18XMPPMessageHandler9parseChatERN4Json5ValueE
FNDA:6,_GLOBAL__sub_I__ZN18XMPPMessageHandlerC2ESs
FNDA:0,_ZN18XMPPMessageHandler7getTypeEv
FNDA:6,_Z41__static_initialization_and_destruction_0ii
FNDA:0,_ZN18XMPPMessageHandlerC2ESs
FNDA:0,_ZN18XMPPMessageHandler11getReceiverEv
FNDA:0,_ZN18XMPPMessageHandler11saveDislikeEPN7rocksdb2DBE
FNDA:0,_ZN18XMPPMessageHandler11saveMessageEPN7rocksdb2DBEN5boost8optionalINS3_10posix_time5ptimeEEE
FNDA:0,_ZN18XMPPMessageHandler9parseLikeERN4Json5ValueE
FNDA:0,_ZN18XMPPMessageHandler17formResendMessageEv
FNDA:0,_ZN18XMPPMessageHandlerD2Ev
FNF:13
FNH:2
DA:4,0
DA:5,0
DA:6,0
DA:8,0
DA:10,0
DA:12,0
DA:13,0
DA:14,0
DA:15,0
DA:18,0
DA:19,0
DA:20,0
DA:22,0
DA:23,0
DA:26,0
DA:27,0
DA:30,0
DA:32,0
DA:34,0
DA:35,0
DA:36,0
DA:37,0
DA:39,0
DA:40,0
DA:41,0
DA:42,0
DA:44,0
DA:45,0
DA:46,0
DA:47,0
DA:49,0
DA:50,0
DA:53,0
DA:54,0
DA:55,0
DA:56,0
DA:57,0
DA:60,0
DA:61,0
DA:62,0
DA:63,0
DA:64,0
DA:66,0
DA:67,0
DA:68,0
DA:69,0
DA:70,18
LF:47
LH:1
end_of_record
TN:
SF:/home/tobias/taller2/appServer/DrTinder/source/Servidor/XMPPServer.cpp
FN:8,_ZN10XMPPServerC2EPN5Swift16NetworkFactoriesE
FN:20,_ZN10XMPPServerD2Ev
FN:25,_ZN10XMPPServer22handlePresenceReceivedESt10shared_ptrIN5Swift8PresenceEE
FN:35,_ZN10XMPPServer15handleConnectedEv
FN:38,_ZN10XMPPServer21handleMessageReceivedESt10shared_ptrIN5Swift7MessageEE
FN:59,_ZN10XMPPServer13resendMessageER18XMPPMessageHandler
FN:68,_ZN10XMPPServer9setChatDBEPN7rocksdb2DBE
FN:72,_ZN10XMPPServer10setLikesDBEPN7rocksdb2DBE
FN:76,_ZN10XMPPServer5closeEv
FN:78,_Z41__static_initialization_and_destruction_0ii
FN:78,_GLOBAL__sub_I__ZN10XMPPServerC2EPN5Swift16NetworkFactoriesE
FNDA:0,_ZN10XMPPServerD2Ev
FNDA:0,_ZN10XMPPServer13resendMessageER18XMPPMessageHandler
FNDA:0,_ZN10XMPPServer10setLikesDBEPN7rocksdb2DBE
FNDA:6,_GLOBAL__sub_I__ZN10XMPPServerC2EPN5Swift16NetworkFactoriesE
FNDA:0,_ZN10XMPPServer15handleConnectedEv
FNDA:0,_ZN10XMPPServerC2EPN5Swift16NetworkFactoriesE
FNDA:0,_ZN10XMPPServer5closeEv
FNDA:0,_ZN10XMPPServer22handlePresenceReceivedESt10shared_ptrIN5Swift8PresenceEE
FNDA:0,_ZN10XMPPServer21handleMessageReceivedESt10shared_ptrIN5Swift7MessageEE
FNDA:6,_Z41__static_initialization_and_destruction_0ii
FNDA:0,_ZN10XMPPServer9setChatDBEPN7rocksdb2DBE
FNF:11
FNH:2
DA:8,0
DA:9,0
DA:10,0
DA:11,0
DA:13,0
DA:15,0
DA:16,0
DA:17,0
DA:18,0
DA:20,0
DA:21,0
DA:22,0
DA:23,0
DA:25,0
DA:27,0
DA:28,0
DA:29,0
DA:30,0
DA:31,0
DA:33,0
DA:35,0
DA:36,0
DA:38,0
DA:39,0
DA:41,0
DA:42,0
DA:44,0
DA:45,0
DA:47,0
DA:48,0
DA:49,0
DA:51,0
DA:52,0
DA:54,0
DA:55,0
DA:57,0
DA:59,0
DA:60,0
DA:62,0
DA:63,0
DA:65,0
DA:66,0
DA:68,0
DA:69,0
DA:70,0
DA:72,0
DA:73,0
DA:74,0
DA:76,0
DA:77,0
DA:78,18
LF:51
LH:1
end_of_record
TN:
SF:/home/tobias/taller2/appServer/DrTinder/source/Servidor/main.cpp
FN:14,_Z9hasToQuitRbRSt5mutex
FN:24,_Z10listenXMPPRN5Swift15SimpleEventLoopE
FN:28,_Z13setUpDatabasePPN7rocksdb2DBESs
FN:43,main
FN:92,_GLOBAL__sub_I__ZN2el4base5utils13s_currentUserE
FN:92,_Z41__static_initialization_and_destruction_0ii
FNDA:1,_GLOBAL__sub_I__ZN2el4base5utils13s_currentUserE
FNDA:1,_Z9hasToQuitRbRSt5mutex
FNDA:1,main
FNDA:0,_Z10listenXMPPRN5Swift15SimpleEventLoopE
FNDA:3,_Z13setUpDatabasePPN7rocksdb2DBESs
FNDA:1,_Z41__static_initialization_and_destruction_0ii
FNF:6
FNH:5
DA:8,1
DA:14,1
DA:15,1
DA:16,3
DA:17,1
DA:19,1
DA:20,1
DA:21,1
DA:22,1
DA:24,0
DA:25,0
DA:26,0
DA:28,3
DA:29,3
DA:30,3
DA:32,3
DA:34,6
DA:35,3
DA:36,0
DA:38,3
DA:39,3
DA:40,3
DA:43,1
DA:44,1
DA:45,2
DA:46,1
DA:47,2
DA:50,1
DA:52,1
DA:59,1
DA:61,1
DA:66,1
DA:69,1
DA:70,1
DA:71,1
DA:73,1
DA:74,1
DA:75,1
DA:76,2
DA:78,1
DA:79,276
DA:80,274
DA:81,274
DA:82,274
DA:84,1
DA:88,1
DA:89,1
DA:90,1
DA:91,2
DA:92,3
LF:50
LH:46
end_of_record
TN:
SF:/home/tobias/taller2/appServer/DrTinder/source/Servidor/matches/UserMatcher.cpp
FN:14,_ZN11UserMatcherC2Ev
FN:25,_ZN11UserMatcher21filterPossibleMatchesEP4UserPSt4listIS1_SaIS1_EESs
FN:46,_ZN11UserMatcher8sameUserEP4UserS1_
FN:50,_ZN11UserMatcher13userInMatchesEP4UserSs
FN:65,_ZN11UserMatcher8containsESt6vectorISsSaISsEERKSs
FN:69,_ZN11UserMatcher19isLookingForUserSexEP4UserS1_
FN:86,_ZN11UserMatcher12isInAgeRangeEP4UserS1_
FN:91,_ZN11UserMatcher8isNearbyEP4UserS1_
FN:103,_Z23atLeastOneValueInCommonSt6vectorISsSaISsEES1_
FN:114,_ZN11UserMatcher11containsKeyERSt3mapISsSt6vectorISsSaISsEESt4lessISsESaISt4pairIKSsS3_EEERS7_
FN:118,_ZN11UserMatcher17hasCommonInterestEP4UserS1_
FN:140,_ZN11UserMatcherD2Ev
FN:140,_ZN11UserMatcherD0Ev
FN:142,_Z41__static_initialization_and_destruction_0ii
FN:142,_GLOBAL__sub_I__ZN11UserMatcherC2Ev
FNDA:17,_ZN11UserMatcherC2Ev
FNDA:4,_GLOBAL__sub_I__ZN11UserMatcherC2Ev
FNDA:117,_ZN11UserMatcher19isLookingForUserSexEP4UserS1_
FNDA:8,_Z23atLeastOneValueInCommonSt6vectorISsSaISsEES1_
FNDA:12,_ZN11UserMatcher8isNearbyEP4UserS1_
FNDA:0,_ZN11UserMatcherD0Ev
FNDA:17,_ZN11UserMatcherD2Ev
FNDA:4,_Z41__static_initialization_and_destruction_0ii
FNDA:18,_ZN11UserMatcher12isInAgeRangeEP4UserS1_
FNDA:12,_ZN11UserMatcher17hasCommonInterestEP4UserS1_
FNDA:28,_ZN11UserMatcher8containsESt6vectorISsSaISsEERKSs
FNDA:150,_ZN11UserMatcher8sameUserEP4UserS1_
FNDA:17,_ZN11UserMatcher21filterPossibleMatchesEP4UserPSt4listIS1_SaIS1_EESs
FNDA:8,_ZN11UserMatcher11containsKeyERSt3mapISsSt6vectorISsSaISsEESt4lessISsESaISt4pairIKSsS3_EEERS7_
FNDA:117,_ZN11UserMatcher13userInMatchesEP4UserSs
FNF:15
FNH:14
DA:14,17
DA:16,17
DA:25,17
DA:26,17
DA:27,17
DA:28,17
DA:29,167
DA:30,150
DA:31,150
DA:32,117
DA:33,252
DA:34,129
DA:35,8
DA:36,8
DA:42,17
DA:46,150
DA:47,150
DA:50,117
DA:51,117
DA:52,234
DA:53,234
DA:54,234
DA:55,234
DA:56,0
DA:57,0
DA:58,0
DA:59,0
DA:61,0
DA:62,234
DA:65,28
DA:66,28
DA:69,117
DA:70,117
DA:71,234
DA:73,117
DA:75,234
DA:77,117
DA:78,28
DA:79,28
DA:80,18
DA:81,10
DA:83,216
DA:86,18
DA:87,18
DA:88,18
DA:91,12
DA:92,12
DA:93,12
DA:94,12
DA:95,12
DA:97,12
DA:99,12
DA:103,8
DA:104,8
DA:105,12
DA:106,12
DA:107,8
DA:109,4
DA:110,0
DA:111,0
DA:114,8
DA:115,8
DA:118,12
DA:119,12
DA:120,12
DA:122,12
DA:123,24
DA:125,12
DA:126,8
DA:127,8
DA:128,8
DA:129,8
DA:130,8
DA:131,8
DA:132,8
DA:133,0
DA:136,0
DA:137,16
DA:140,17
DA:142,29
LF:80
LH:71
end_of_record
